

Microchip Technology PIC18 LITE Macro Assembler V1.45 build -152302408 
                                                                                               Tue Apr 14 00:15:36 2020

Microchip Technology Omniscient Code Generator v1.45 (Free mode) build 201711160504
     1                           	processor	18LF46J13
     2                           	fnconf	rparam,??,?,0
     3                           	opt	pw 120
     4                           	opt	lm
     5                           	psect	idataCOMRAM,global,class=CODE,delta=1,noexec
     6                           	psect	idataBANK0,global,class=CODE,delta=1,noexec
     7                           	psect	smallconst,global,reloc=2,class=SMALLCONST,delta=1,noexec
     8                           	psect	cinit,global,reloc=2,class=CODE,delta=1
     9                           	psect	bssCOMRAM,global,class=COMRAM,space=1,delta=1,noexec
    10                           	psect	dataCOMRAM,global,class=COMRAM,space=1,delta=1,noexec
    11                           	psect	dataBANK0,global,class=BANK0,space=1,delta=1,lowdata,noexec
    12                           	psect	bssBANK1,global,class=BANK1,space=1,delta=1,lowdata,noexec
    13                           	psect	cstackCOMRAM,global,class=COMRAM,space=1,delta=1,noexec
    14                           	psect	text0,global,reloc=2,class=CODE,delta=1
    15                           	psect	text1,global,reloc=2,class=CODE,delta=1
    16                           	psect	text2,global,reloc=2,class=CODE,delta=1
    17                           	psect	text3,global,reloc=2,class=CODE,delta=1,group=1
    18                           	psect	text4,global,reloc=2,class=CODE,delta=1
    19                           	psect	text5,global,reloc=2,class=CODE,delta=1
    20                           	psect	text6,global,reloc=2,class=CODE,delta=1
    21                           	psect	text7,global,reloc=2,class=CODE,delta=1
    22                           	psect	text8,global,reloc=2,class=CODE,delta=1
    23                           	psect	text9,global,reloc=2,class=CODE,delta=1
    24                           	psect	text10,global,reloc=2,class=CODE,delta=1,group=1
    25                           	psect	text11,global,reloc=2,class=CODE,delta=1,group=1
    26                           	psect	text12,global,reloc=2,class=CODE,delta=1
    27                           	psect	text13,global,reloc=2,class=CODE,delta=1
    28                           	psect	text14,global,reloc=2,class=CODE,delta=1
    29                           	psect	text15,global,reloc=2,class=CODE,delta=1
    30                           	psect	text16,global,reloc=2,class=CODE,delta=1
    31                           	psect	text17,global,reloc=2,class=CODE,delta=1
    32                           	psect	text18,global,reloc=2,class=CODE,delta=1
    33                           	psect	text19,global,reloc=2,class=CODE,delta=1
    34                           	psect	text20,global,reloc=2,class=CODE,delta=1
    35                           	psect	text21,global,reloc=2,class=CODE,delta=1
    36                           	psect	intsave_regs,global,class=BIGRAM,space=1,delta=1,noexec
    37                           	psect	rparam,global,class=COMRAM,space=1,delta=1,noexec
    38  0000                     
    39                           ; Version 1.45
    40                           ; Generated 16/11/2017 GMT
    41                           ; 
    42                           ; Copyright © 2017, Microchip Technology Inc. and its subsidiaries ("Microchip")
    43                           ; All rights reserved.
    44                           ; 
    45                           ; This software is developed by Microchip Technology Inc. and its subsidiaries ("Microch
      +                          ip").
    46                           ; 
    47                           ; Redistribution and use in source and binary forms, with or without modification, are
    48                           ; permitted provided that the following conditions are met:
    49                           ; 
    50                           ;     1. Redistributions of source code must retain the above copyright notice, this lis
      +                          t of
    51                           ;        conditions and the following disclaimer.
    52                           ; 
    53                           ;     2. Redistributions in binary form must reproduce the above copyright notice, this 
      +                          list
    54                           ;        of conditions and the following disclaimer in the documentation and/or other
    55                           ;        materials provided with the distribution.
    56                           ; 
    57                           ;     3. Microchip's name may not be used to endorse or promote products derived from th
      +                          is
    58                           ;        software without specific prior written permission.
    59                           ; 
    60                           ; THIS SOFTWARE IS PROVIDED BY MICROCHIP "AS IS" AND ANY EXPRESS OR IMPLIED WARRANTIES,
    61                           ; INCLUDING, BUT NOT LIMITED TO, THE IMPLIED WARRANTIES OF MERCHANTABILITY AND FITNESS F
      +                          OR
    62                           ; PURPOSE ARE DISCLAIMED.  IN NO EVENT SHALL MICROCHIP BE LIABLE FOR ANY DIRECT, INDIREC
      +                          T,
    63                           ; INCIDENTAL, SPECIAL, EXEMPLARY, OR CONSEQUENTIAL DAMAGES (INCLUDING BUT NOT LIMITED TO
    64                           ; PROCUREMENT OF SUBSTITUTE GOODS OR SERVICES; LOSS OF USE, DATA OR PROFITS; OR BUSINESS
    65                           ; INTERRUPTION) HOWSOEVER CAUSED AND ON ANY THEORY OF LIABILITY, WHETHER IN CONTRACT, ST
      +                          RICT
    66                           ; LIABILITY, OR TORT (INCLUDING NEGLIGENCE OR OTHERWISE) ARISING IN ANY WAY OUT OF THE U
      +                          SE OF
    67                           ; THIS SOFTWARE, EVEN IF ADVISED OF THE POSSIBILITY OF SUCH DAMAGE.
    68                           ; 
    69                           ; 
    70                           ; Code-generator required, PIC18LF46J13 Definitions
    71                           ; 
    72                           ; SFR Addresses
    73  0000                     
    74 ;; Function _EUSART1_DefaultFramingErrorHandler is unused but had its address taken
    75  0000                     
    76 ;; Function _EUSART1_DefaultOverrunErrorHandler is unused but had its address taken
    77  0000                     
    78 ;; Function _EUSART1_DefaultErrorHandler is unused but had its address taken
    79  0000                     
    80                           	psect	idataCOMRAM
    81  0013FC                     __pidataCOMRAM:
    82                           	opt stack 0
    83                           
    84                           ;initializer for PCF8523_setTime@F7816
    85  0013FC  0003               	dw	3
    86  0013FE  0004               	dw	4
    87  001400  0005               	dw	5
    88  001402  00                 	db	0
    89  001403  00                 	db	0
    90                           
    91                           ;initializer for _page
    92  001404  B0                 	db	176
    93  001405  B1                 	db	177
    94  001406  B2                 	db	178
    95  001407  B3                 	db	179
    96  001408  B4                 	db	180
    97  001409  B5                 	db	181
    98  00140A  B6                 	db	182
    99  00140B  B7                 	db	183
   100                           
   101                           ;initializer for PCF8523_setDate@F7823
   102  00140C  06                 	db	6
   103  00140D  07                 	db	7
   104  00140E  08                 	db	8
   105  00140F  09                 	db	9
   106  001410  00                 	db	0
   107                           
   108                           	psect	idataBANK0
   109  0013AA                     __pidataBANK0:
   110                           	opt stack 0
   111                           
   112                           ;initializer for _columm
   113  0013AA  00                 	db	0
   114  0013AB  01                 	db	1
   115  0013AC  02                 	db	2
   116  0013AD  03                 	db	3
   117  0013AE  04                 	db	4
   118  0013AF  05                 	db	5
   119  0013B0  06                 	db	6
   120  0013B1  07                 	db	7
   121  0013B2  08                 	db	8
   122  0013B3  09                 	db	9
   123  0013B4  0A                 	db	10
   124  0013B5  0B                 	db	11
   125  0013B6  0C                 	db	12
   126  0013B7  0D                 	db	13
   127  0013B8  0E                 	db	14
   128  0013B9  0F                 	db	15
   129  0013BA  10                 	db	16
   130  0013BB  11                 	db	17
   131  0013BC  12                 	db	18
   132  0013BD  13                 	db	19
   133  0013BE  14                 	db	20
   134  0013BF  15                 	db	21
   135  0013C0  16                 	db	22
   136  0013C1  17                 	db	23
   137  0013C2  18                 	db	24
   138  0013C3  19                 	db	25
   139  0013C4  1A                 	db	26
   140  0013C5  1B                 	db	27
   141  0013C6  1C                 	db	28
   142  0013C7  1D                 	db	29
   143  0013C8  1E                 	db	30
   144  0013C9  1F                 	db	31
   145                           
   146                           	psect	smallconst
   147  000F00                     __psmallconst:
   148                           	opt stack 0
   149  000F00  00                 	db	0
   150  000F01  00                 	db	0
   151  000F02  80                 	db	128
   152  000F03  3F                 	db	63
   153  000F04  72                 	db	114
   154  000F05  31                 	db	49
   155  000F06  3F                 	db	63
   156  000F07  FE                 	db	254
   157  000F08  75                 	db	117
   158  000F09  3E                 	db	62
   159  000F0A  58                 	db	88
   160  000F0B  63                 	db	99
   161  000F0C  3D                 	db	61
   162  000F0D  95                 	db	149
   163  000F0E  1D                 	db	29
   164  000F0F  3C                 	db	60
   165  000F10  C5                 	db	197
   166  000F11  AE                 	db	174
   167  000F12  3A                 	db	58
   168  000F13  79                 	db	121
   169  000F14  21                 	db	33
   170  000F15  39                 	db	57
   171  000F16  94                 	db	148
   172  000F17  80                 	db	128
   173  000F18  37                 	db	55
   174  000F19  93                 	db	147
   175  000F1A  A7                 	db	167
   176  000F1B  35                 	db	53
   177  000F1C  56                 	db	86
   178  000F1D  15                 	db	21
   179  000F1E  34                 	db	52
   180  000F1F                     __end_ofexp@coeff:
   181                           	opt stack 0
   182  000F1F  00                 	db	0
   183  000F20  00                 	db	0
   184  000F21  00                 	db	0
   185  000F22  00                 	db	0
   186  000F23  80                 	db	128
   187  000F24  3F                 	db	63
   188  000F25  F0                 	db	240
   189  000F26  FF                 	db	255
   190  000F27  BE                 	db	190
   191  000F28  E2                 	db	226
   192  000F29  A9                 	db	169
   193  000F2A  3E                 	db	62
   194  000F2B  83                 	db	131
   195  000F2C  76                 	db	118
   196  000F2D  BE                 	db	190
   197  000F2E  AE                 	db	174
   198  000F2F  2B                 	db	43
   199  000F30  3E                 	db	62
   200  000F31  3C                 	db	60
   201  000F32  C3                 	db	195
   202  000F33  BD                 	db	189
   203  000F34  D2                 	db	210
   204  000F35  13                 	db	19
   205  000F36  3D                 	db	61
   206  000F37  78                 	db	120
   207  000F38  D3                 	db	211
   208  000F39  BB                 	db	187
   209  000F3A                     __end_oflog@coeff:
   210                           	opt stack 0
   211  0000                     _ODCON3	set	3904
   212  0000                     _ODCON2	set	3905
   213  0000                     _ODCON1	set	3906
   214  0000                     _ANCON1	set	3913
   215  0000                     _ANCON0	set	3912
   216  0000                     _REFOCON	set	3901
   217  0000                     _LATEbits	set	3981
   218  0000                     _SSP2STATbits	set	3955
   219  0000                     _SSP2BUF	set	3957
   220  0000                     _SSP2ADD	set	3956
   221  0000                     _SSP2CON2bits	set	3953
   222  0000                     _SSP2CON1bits	set	3954
   223  0000                     _TRISDbits	set	3989
   224  0000                     _PIR3bits	set	4004
   225  0000                     _PIE3bits	set	4003
   226  0000                     _PORTBbits	set	3969
   227  0000                     _LATCbits	set	3979
   228  0000                     _TRISCbits	set	3988
   229  0000                     _INTCONbits	set	4082
   230  0000                     _TRISEbits	set	3990
   231  0000                     _INTCON2bits	set	4081
   232  0000                     _TRISD	set	3989
   233  0000                     _TRISC	set	3988
   234  0000                     _TRISB	set	3987
   235  0000                     _TRISA	set	3986
   236  0000                     _TRISE	set	3990
   237  0000                     _LATC	set	3979
   238  0000                     _LATB	set	3978
   239  0000                     _LATA	set	3977
   240  0000                     _LATD	set	3980
   241  0000                     _LATE	set	3981
   242  0000                     _OSCCON2	set	3975
   243  0000                     _OSCTUNE	set	3995
   244  0000                     _OSCCON	set	4051
   245  0000                     _TXREG1	set	4014
   246  0000                     _RCREG1	set	4015
   247  0000                     _RCSTA1bits	set	4012
   248  0000                     _TXSTA1bits	set	4013
   249  0000                     _PIR1bits	set	3998
   250  0000                     _SPBRGH1	set	3967
   251  0000                     _SPBRG1	set	4016
   252  0000                     _TXSTA1	set	4013
   253  0000                     _RCSTA1	set	4012
   254  0000                     _BAUDCON1	set	3966
   255  0000                     _SSP1STATbits	set	4039
   256  0000                     _SSP1BUF	set	4041
   257  0000                     _SSP1CON1bits	set	4038
   258  0000                     _SSP1ADD	set	4040
   259  0000                     _SSP1CON1	set	4038
   260  0000                     _SSP1STAT	set	4039
   261  000F3A  0D                 	db	13
   262  000F3B  00                 	db	0
   263  000F3C  30                 	db	48	;'0'
   264  000F3D  00                 	db	0
   265  000F3E  20                 	db	32
   266  000F3F  00                 	db	0
   267                           
   268                           ; #config settings
   269  000F40  00                 	db	0	; dummy byte at the end
   270  0000                     
   271                           	psect	cinit
   272  001162                     __pcinit:
   273                           	opt stack 0
   274  001162                     start_initialization:
   275                           	opt stack 0
   276  001162                     __initialization:
   277                           	opt stack 0
   278                           
   279                           ; Initialize objects allocated to BANK0 (32 bytes)
   280                           ; load TBLPTR registers with __pidataBANK0
   281  001162  0EAA               	movlw	low __pidataBANK0
   282  001164  6EF6               	movwf	tblptrl,c
   283  001166  0E13               	movlw	high __pidataBANK0
   284  001168  6EF7               	movwf	tblptrh,c
   285  00116A  0E00               	movlw	low (__pidataBANK0 shr (0+16))
   286  00116C  6EF8               	movwf	tblptru,c
   287  00116E  EE00  F060         	lfsr	0,__pdataBANK0
   288  001172  EE10 F020          	lfsr	1,32
   289  001176                     copy_data0:
   290  001176  0009               	tblrd		*+
   291  001178  CFF5 FFEE          	movff	tablat,postinc0
   292  00117C  50E5               	movf	postdec1,w,c
   293  00117E  50E1               	movf	fsr1l,w,c
   294  001180  E1FA               	bnz	copy_data0
   295                           
   296                           ; Initialize objects allocated to COMRAM (21 bytes)
   297                           ; load TBLPTR registers with __pidataCOMRAM
   298  001182  0EFC               	movlw	low __pidataCOMRAM
   299  001184  6EF6               	movwf	tblptrl,c
   300  001186  0E13               	movlw	high __pidataCOMRAM
   301  001188  6EF7               	movwf	tblptrh,c
   302  00118A  0E00               	movlw	low (__pidataCOMRAM shr (0+16))
   303  00118C  6EF8               	movwf	tblptru,c
   304  00118E  EE00  F037         	lfsr	0,__pdataCOMRAM
   305  001192  EE10 F015          	lfsr	1,21
   306  001196                     copy_data1:
   307  001196  0009               	tblrd		*+
   308  001198  CFF5 FFEE          	movff	tablat,postinc0
   309  00119C  50E5               	movf	postdec1,w,c
   310  00119E  50E1               	movf	fsr1l,w,c
   311  0011A0  E1FA               	bnz	copy_data1
   312                           
   313                           ; Clear objects allocated to BANK1 (256 bytes)
   314  0011A2  EE01  F000         	lfsr	0,__pbssBANK1
   315  0011A6  EE11 F000          	lfsr	1,256
   316  0011AA                     clear_0:
   317  0011AA  6AEE               	clrf	postinc0,c
   318  0011AC  50E5               	movf	postdec1,w,c
   319  0011AE  50E1               	movf	fsr1l,w,c
   320  0011B0  E1FC               	bnz	clear_0
   321  0011B2  50E2               	movf	fsr1h,w,c
   322  0011B4  E1FA               	bnz	clear_0
   323                           
   324                           ; Clear objects allocated to COMRAM (31 bytes)
   325  0011B6  EE00  F001         	lfsr	0,__pbssCOMRAM
   326  0011BA  0E1F               	movlw	31
   327  0011BC                     clear_1:
   328  0011BC  6AEE               	clrf	postinc0,c
   329  0011BE  06E8               	decf	wreg,f,c
   330  0011C0  E1FD               	bnz	clear_1
   331  0011C2                     end_of_initialization:
   332                           	opt stack 0
   333  0011C2                     __end_of__initialization:
   334                           	opt stack 0
   335  0011C2  0E00               	movlw	low (__Lmediumconst shr (0+16))
   336  0011C4  6EF8               	movwf	tblptru,c
   337  0011C6  0100               	movlb	0
   338  0011C8  EF32  F009         	goto	_main	;jump to C main() function
   339                           tblptru	equ	0xFF8
   340                           tblptrh	equ	0xFF7
   341                           tblptrl	equ	0xFF6
   342                           tablat	equ	0xFF5
   343                           postinc0	equ	0xFEE
   344                           wreg	equ	0xFE8
   345                           postdec1	equ	0xFE5
   346                           fsr1h	equ	0xFE2
   347                           fsr1l	equ	0xFE1
   348                           
   349                           	psect	bssCOMRAM
   350  000001                     __pbssCOMRAM:
   351                           	opt stack 0
   352  000001                     _sData:
   353                           	opt stack 0
   354  000001                     	ds	10
   355  00000B                     _bfSize:
   356                           	opt stack 0
   357  00000B                     	ds	4
   358  00000F                     _MAX31_ADC:
   359                           	opt stack 0
   360  00000F                     	ds	4
   361  000013                     _errno:
   362                           	opt stack 0
   363  000013                     	ds	2
   364  000015                     _buffer:
   365                           	opt stack 0
   366  000015                     	ds	2
   367  000017                     _ADC:
   368                           	opt stack 0
   369  000017                     	ds	2
   370  000019                     _EUSART1_ErrorHandler:
   371                           	opt stack 0
   372  000019                     	ds	2
   373  00001B                     _EUSART1_OverrunErrorHandler:
   374                           	opt stack 0
   375  00001B                     	ds	2
   376  00001D                     _EUSART1_FramingErrorHandler:
   377                           	opt stack 0
   378  00001D                     	ds	2
   379  00001F                     _eusart1RxLastError:
   380                           	opt stack 0
   381  00001F                     	ds	1
   382                           tblptru	equ	0xFF8
   383                           tblptrh	equ	0xFF7
   384                           tblptrl	equ	0xFF6
   385                           tablat	equ	0xFF5
   386                           postinc0	equ	0xFEE
   387                           wreg	equ	0xFE8
   388                           postdec1	equ	0xFE5
   389                           fsr1h	equ	0xFE2
   390                           fsr1l	equ	0xFE1
   391                           
   392                           	psect	dataCOMRAM
   393  000037                     __pdataCOMRAM:
   394                           	opt stack 0
   395  000037                     PCF8523_setTime@F7816:
   396                           	opt stack 0
   397  000037                     	ds	8
   398  00003F                     _page:
   399                           	opt stack 0
   400  00003F                     	ds	8
   401  000047                     PCF8523_setDate@F7823:
   402                           	opt stack 0
   403  000047                     	ds	5
   404                           tblptru	equ	0xFF8
   405                           tblptrh	equ	0xFF7
   406                           tblptrl	equ	0xFF6
   407                           tablat	equ	0xFF5
   408                           postinc0	equ	0xFEE
   409                           wreg	equ	0xFE8
   410                           postdec1	equ	0xFE5
   411                           fsr1h	equ	0xFE2
   412                           fsr1l	equ	0xFE1
   413                           
   414                           	psect	dataBANK0
   415  000060                     __pdataBANK0:
   416                           	opt stack 0
   417  000060                     _columm:
   418                           	opt stack 0
   419  000060                     	ds	32
   420                           tblptru	equ	0xFF8
   421                           tblptrh	equ	0xFF7
   422                           tblptrl	equ	0xFF6
   423                           tablat	equ	0xFF5
   424                           postinc0	equ	0xFEE
   425                           wreg	equ	0xFE8
   426                           postdec1	equ	0xFE5
   427                           fsr1h	equ	0xFE2
   428                           fsr1l	equ	0xFE1
   429                           
   430                           	psect	bssBANK1
   431  000100                     __pbssBANK1:
   432                           	opt stack 0
   433  000100                     _TxData:
   434                           	opt stack 0
   435  000100                     	ds	256
   436                           tblptru	equ	0xFF8
   437                           tblptrh	equ	0xFF7
   438                           tblptrl	equ	0xFF6
   439                           tablat	equ	0xFF5
   440                           postinc0	equ	0xFEE
   441                           wreg	equ	0xFE8
   442                           postdec1	equ	0xFE5
   443                           fsr1h	equ	0xFE2
   444                           fsr1l	equ	0xFE1
   445                           
   446                           	psect	cstackCOMRAM
   447  000020                     __pcstackCOMRAM:
   448                           	opt stack 0
   449  000020                     ??_OSCILLATOR_Initialize:
   450  000020                     ?___wmul:
   451                           	opt stack 0
   452  000020                     I2C_Write@data:
   453                           	opt stack 0
   454  000020                     EUSART1_SetFramingErrorHandler@interruptHandler:
   455                           	opt stack 0
   456  000020                     EUSART1_SetOverrunErrorHandler@interruptHandler:
   457                           	opt stack 0
   458  000020                     EUSART1_SetErrorHandler@interruptHandler:
   459                           	opt stack 0
   460  000020                     ___wmul@multiplier:
   461                           	opt stack 0
   462  000020                     memset@p1:
   463                           	opt stack 0
   464                           
   465                           ; 2 bytes @ 0x0
   466  000020                     	ds	1
   467  000021                     SSD1306_writeCMD@dataByte:
   468                           	opt stack 0
   469  000021                     displayWrite@y:
   470                           	opt stack 0
   471                           
   472                           ; 1 bytes @ 0x1
   473  000021                     	ds	1
   474  000022                     SSD1306_writeCMD@controlReg:
   475                           	opt stack 0
   476  000022                     displayWrite@address:
   477                           	opt stack 0
   478  000022                     ___wmul@multiplicand:
   479                           	opt stack 0
   480  000022                     memset@c:
   481                           	opt stack 0
   482                           
   483                           ; 2 bytes @ 0x2
   484  000022                     	ds	1
   485  000023                     ??_SSD1306_Init:
   486                           
   487                           ; 1 bytes @ 0x3
   488  000023                     	ds	1
   489  000024                     displayWrite@x:
   490                           	opt stack 0
   491  000024                     ___wmul@product:
   492                           	opt stack 0
   493  000024                     memset@n:
   494                           	opt stack 0
   495                           
   496                           ; 2 bytes @ 0x4
   497  000024                     	ds	2
   498  000026                     ?___aldiv:
   499                           	opt stack 0
   500  000026                     memset@p:
   501                           	opt stack 0
   502  000026                     ___aldiv@dividend:
   503                           	opt stack 0
   504                           
   505                           ; 4 bytes @ 0x6
   506  000026                     	ds	2
   507  000028                     displaySetCursor@size:
   508                           	opt stack 0
   509                           
   510                           ; 2 bytes @ 0x8
   511  000028                     	ds	2
   512  00002A                     ___aldiv@divisor:
   513                           	opt stack 0
   514                           
   515                           ; 4 bytes @ 0xA
   516  00002A                     	ds	4
   517  00002E                     ___aldiv@counter:
   518                           	opt stack 0
   519                           
   520                           ; 1 bytes @ 0xE
   521  00002E                     	ds	1
   522  00002F                     ___aldiv@sign:
   523                           	opt stack 0
   524                           
   525                           ; 1 bytes @ 0xF
   526  00002F                     	ds	1
   527  000030                     ___aldiv@quotient:
   528                           	opt stack 0
   529                           
   530                           ; 4 bytes @ 0x10
   531  000030                     	ds	4
   532  000034                     I2C_Init@F_clock:
   533                           	opt stack 0
   534                           
   535                           ; 1 bytes @ 0x14
   536  000034                     	ds	1
   537  000035                     ??_main:
   538                           
   539                           ; 1 bytes @ 0x15
   540  000035                     	ds	2
   541                           tblptru	equ	0xFF8
   542                           tblptrh	equ	0xFF7
   543                           tblptrl	equ	0xFF6
   544                           tablat	equ	0xFF5
   545                           postinc0	equ	0xFEE
   546                           wreg	equ	0xFE8
   547                           postdec1	equ	0xFE5
   548                           fsr1h	equ	0xFE2
   549                           fsr1l	equ	0xFE1
   550                           
   551 ;;
   552 ;;Main: autosize = 0, tempsize = 2, incstack = 0, save=0
   553 ;;
   554 ;; *************** function _main *****************
   555 ;; Defined at:
   556 ;;		line 5 in file "main.c"
   557 ;; Parameters:    Size  Location     Type
   558 ;;		None
   559 ;; Auto vars:     Size  Location     Type
   560 ;;		None
   561 ;; Return value:  Size  Location     Type
   562 ;;                  1    wreg      void 
   563 ;; Registers used:
   564 ;;		wreg, fsr2l, fsr2h, status,2, status,0, prodl, prodh, cstack
   565 ;; Tracked objects:
   566 ;;		On entry : 0/0
   567 ;;		On exit  : 0/0
   568 ;;		Unchanged: 0/0
   569 ;; Data sizes:     COMRAM   BANK0   BANK1   BANK2   BANK3   BANK4   BANK5   BANK6   BANK7   BANK8   BANK9  BANK10  BANK1
      +1  BANK12  BANK13  BANK14
   570 ;;      Params:         0       0       0       0       0       0       0       0       0       0       0       0       
      +0       0       0       0
   571 ;;      Locals:         0       0       0       0       0       0       0       0       0       0       0       0       
      +0       0       0       0
   572 ;;      Temps:          2       0       0       0       0       0       0       0       0       0       0       0       
      +0       0       0       0
   573 ;;      Totals:         2       0       0       0       0       0       0       0       0       0       0       0       
      +0       0       0       0
   574 ;;Total ram usage:        2 bytes
   575 ;; Hardware stack levels required when called:    4
   576 ;; This function calls:
   577 ;;		_I2C_buffClear
   578 ;;		_SSD1306_Init
   579 ;;		_SYSTEM_Initialize
   580 ;;		_displaySetCursor
   581 ;;		_interrupt_Init
   582 ;; This function is called by:
   583 ;;		Startup code after reset
   584 ;; This function uses a non-reentrant model
   585 ;;
   586                           
   587                           	psect	text0
   588  001264                     __ptext0:
   589                           	opt stack 0
   590  001264                     _main:
   591                           	opt stack 27
   592                           
   593                           ;main.c: 7: interrupt_Init();
   594                           
   595                           ;incstack = 0
   596  001264  EC18  F00A         	call	_interrupt_Init	;wreg free
   597                           
   598                           ;main.c: 8: SYSTEM_Initialize();
   599  001268  ECF2  F009         	call	_SYSTEM_Initialize	;wreg free
   600                           
   601                           ;main.c: 9: do { TRISCbits.TRISC0 = 0; } while(0);
   602  00126C  9094               	bcf	3988,0,c	;volatile
   603                           
   604                           ;main.c: 11: I2C_buffClear();
   605  00126E  EC09  F00A         	call	_I2C_buffClear	;wreg free
   606                           
   607                           ;main.c: 12: _delay((unsigned long)((10)*(16000000/4000.0)));
   608  001272  0E34               	movlw	52
   609  001274  6E35               	movwf	??_main& (0+255),c
   610  001276  0EF2               	movlw	242
   611  001278                     u897:
   612  001278  2EE8               	decfsz	wreg,f,c
   613  00127A  D7FE               	bra	u897
   614  00127C  2E35               	decfsz	??_main& (0+255),f,c
   615  00127E  D7FC               	bra	u897
   616                           
   617                           ;main.c: 14: SSD1306_Init();
   618  001280  ECA1  F007         	call	_SSD1306_Init	;wreg free
   619                           
   620                           ;main.c: 15: _delay((unsigned long)((2000)*(16000000/4000.0)));
   621  001284  0E29               	movlw	41
   622  001286  6E36               	movwf	(??_main+1)& (0+255),c
   623  001288  0E96               	movlw	150
   624  00128A  6E35               	movwf	??_main& (0+255),c
   625  00128C  0E7F               	movlw	127
   626  00128E                     u907:
   627  00128E  2EE8               	decfsz	wreg,f,c
   628  001290  D7FE               	bra	u907
   629  001292  2E35               	decfsz	??_main& (0+255),f,c
   630  001294  D7FC               	bra	u907
   631  001296  2E36               	decfsz	(??_main+1)& (0+255),f,c
   632  001298  D7FA               	bra	u907
   633  00129A  F000               	nop	
   634                           
   635                           ;main.c: 16: displaySetCursor();
   636  00129C  EC6F  F008         	call	_displaySetCursor	;wreg free
   637  0012A0                     l270:
   638  0012A0  D7FF               	goto	l270
   639  0012A2                     __end_of_main:
   640                           	opt stack 0
   641                           tblptru	equ	0xFF8
   642                           tblptrh	equ	0xFF7
   643                           tblptrl	equ	0xFF6
   644                           tablat	equ	0xFF5
   645                           postinc0	equ	0xFEE
   646                           wreg	equ	0xFE8
   647                           postdec1	equ	0xFE5
   648                           fsr1h	equ	0xFE2
   649                           fsr1l	equ	0xFE1
   650                           
   651 ;; *************** function _interrupt_Init *****************
   652 ;; Defined at:
   653 ;;		line 15 in file "Interrupt.c"
   654 ;; Parameters:    Size  Location     Type
   655 ;;		None
   656 ;; Auto vars:     Size  Location     Type
   657 ;;		None
   658 ;; Return value:  Size  Location     Type
   659 ;;                  1    wreg      void 
   660 ;; Registers used:
   661 ;;		None
   662 ;; Tracked objects:
   663 ;;		On entry : 0/0
   664 ;;		On exit  : 0/0
   665 ;;		Unchanged: 0/0
   666 ;; Data sizes:     COMRAM   BANK0   BANK1   BANK2   BANK3   BANK4   BANK5   BANK6   BANK7   BANK8   BANK9  BANK10  BANK1
      +1  BANK12  BANK13  BANK14
   667 ;;      Params:         0       0       0       0       0       0       0       0       0       0       0       0       
      +0       0       0       0
   668 ;;      Locals:         0       0       0       0       0       0       0       0       0       0       0       0       
      +0       0       0       0
   669 ;;      Temps:          0       0       0       0       0       0       0       0       0       0       0       0       
      +0       0       0       0
   670 ;;      Totals:         0       0       0       0       0       0       0       0       0       0       0       0       
      +0       0       0       0
   671 ;;Total ram usage:        0 bytes
   672 ;; Hardware stack levels used:    1
   673 ;; This function calls:
   674 ;;		Nothing
   675 ;; This function is called by:
   676 ;;		_main
   677 ;; This function uses a non-reentrant model
   678 ;;
   679                           
   680                           	psect	text1
   681  001430                     __ptext1:
   682                           	opt stack 0
   683  001430                     _interrupt_Init:
   684                           	opt stack 30
   685                           
   686                           ;Interrupt.c: 16: INTCONbits.GIE = 1;
   687                           
   688                           ;incstack = 0
   689  001430  8EF2               	bsf	intcon,7,c	;volatile
   690                           
   691                           ;Interrupt.c: 17: INTCONbits.PEIE = 1;
   692  001432  8CF2               	bsf	intcon,6,c	;volatile
   693                           
   694                           ;Interrupt.c: 18: PIE3bits.SSP2IE = 1;
   695  001434  8EA3               	bsf	4003,7,c	;volatile
   696                           
   697                           ;Interrupt.c: 19: PIR3bits.SSP2IF = 0;
   698  001436  9EA4               	bcf	4004,7,c	;volatile
   699  001438  0012               	return		;funcret
   700  00143A                     __end_of_interrupt_Init:
   701                           	opt stack 0
   702                           tblptru	equ	0xFF8
   703                           tblptrh	equ	0xFF7
   704                           tblptrl	equ	0xFF6
   705                           tablat	equ	0xFF5
   706                           intcon	equ	0xFF2
   707                           postinc0	equ	0xFEE
   708                           wreg	equ	0xFE8
   709                           postdec1	equ	0xFE5
   710                           fsr1h	equ	0xFE2
   711                           fsr1l	equ	0xFE1
   712                           
   713 ;; *************** function _displaySetCursor *****************
   714 ;; Defined at:
   715 ;;		line 74 in file "SSD1306_OLED.c"
   716 ;; Parameters:    Size  Location     Type
   717 ;;		None
   718 ;; Auto vars:     Size  Location     Type
   719 ;;  size            2    8[COMRAM] unsigned int 
   720 ;; Return value:  Size  Location     Type
   721 ;;                  1    wreg      void 
   722 ;; Registers used:
   723 ;;		wreg, fsr2l, fsr2h, status,2, status,0, cstack
   724 ;; Tracked objects:
   725 ;;		On entry : 0/0
   726 ;;		On exit  : 0/0
   727 ;;		Unchanged: 0/0
   728 ;; Data sizes:     COMRAM   BANK0   BANK1   BANK2   BANK3   BANK4   BANK5   BANK6   BANK7   BANK8   BANK9  BANK10  BANK1
      +1  BANK12  BANK13  BANK14
   729 ;;      Params:         0       0       0       0       0       0       0       0       0       0       0       0       
      +0       0       0       0
   730 ;;      Locals:         2       0       0       0       0       0       0       0       0       0       0       0       
      +0       0       0       0
   731 ;;      Temps:          0       0       0       0       0       0       0       0       0       0       0       0       
      +0       0       0       0
   732 ;;      Totals:         2       0       0       0       0       0       0       0       0       0       0       0       
      +0       0       0       0
   733 ;;Total ram usage:        2 bytes
   734 ;; Hardware stack levels used:    1
   735 ;; Hardware stack levels required when called:    3
   736 ;; This function calls:
   737 ;;		_I2C_Write
   738 ;;		_I2C_start
   739 ;;		_I2C_stop
   740 ;;		_displayWrite
   741 ;;		_memset
   742 ;; This function is called by:
   743 ;;		_main
   744 ;; This function uses a non-reentrant model
   745 ;;
   746                           
   747                           	psect	text2
   748  0010DE                     __ptext2:
   749                           	opt stack 0
   750  0010DE                     _displaySetCursor:
   751                           	opt stack 27
   752                           
   753                           ;SSD1306_OLED.c: 75: displayWrite(7,7,0x22);
   754                           
   755                           ;incstack = 0
   756  0010DE  0E07               	movlw	7
   757  0010E0  6E21               	movwf	displayWrite@y,c
   758  0010E2  0E00               	movlw	0
   759  0010E4  6E23               	movwf	displayWrite@address+1,c
   760  0010E6  0E22               	movlw	34
   761  0010E8  6E22               	movwf	displayWrite@address,c
   762  0010EA  0E07               	movlw	7
   763  0010EC  ECC3  F009         	call	_displayWrite
   764                           
   765                           ;SSD1306_OLED.c: 76: displayWrite(1,1,0x21);
   766  0010F0  0E01               	movlw	1
   767  0010F2  6E21               	movwf	displayWrite@y,c
   768  0010F4  0E00               	movlw	0
   769  0010F6  6E23               	movwf	displayWrite@address+1,c
   770  0010F8  0E21               	movlw	33
   771  0010FA  6E22               	movwf	displayWrite@address,c
   772  0010FC  0E01               	movlw	1
   773  0010FE  ECC3  F009         	call	_displayWrite
   774                           
   775                           ;SSD1306_OLED.c: 78: I2C_start();
   776  001102  EC2C  F00A         	call	_I2C_start	;wreg free
   777                           
   778                           ;SSD1306_OLED.c: 79: I2C_Write(0x7A);
   779  001106  0E7A               	movlw	122
   780  001108  ECE5  F009         	call	_I2C_Write
   781                           
   782                           ;SSD1306_OLED.c: 80: I2C_Write(0x41);
   783  00110C  0E41               	movlw	65
   784  00110E  ECE5  F009         	call	_I2C_Write
   785                           
   786                           ;SSD1306_OLED.c: 81: memset(buffer, 0xfd,16);
   787  001112  C015  F020         	movff	_buffer,memset@p1
   788  001116  C016  F021         	movff	_buffer+1,memset@p1+1
   789  00111A  0E00               	movlw	0
   790  00111C  6E23               	movwf	memset@c+1,c
   791  00111E  0EFD               	movlw	253
   792  001120  6E22               	movwf	memset@c,c
   793  001122  0E00               	movlw	0
   794  001124  6E25               	movwf	memset@n+1,c
   795  001126  0E10               	movlw	16
   796  001128  6E24               	movwf	memset@n,c
   797  00112A  EC70  F009         	call	_memset	;wreg free
   798                           
   799                           ;SSD1306_OLED.c: 82: for(uint16_t size=0; size <1; size++){
   800  00112E  0E00               	movlw	0
   801  001130  6E29               	movwf	displaySetCursor@size+1,c
   802  001132  0E00               	movlw	0
   803  001134  6E28               	movwf	displaySetCursor@size,c
   804  001136                     l2674:
   805  001136  5028               	movf	displaySetCursor@size,w,c
   806  001138  1029               	iorwf	displaySetCursor@size+1,w,c
   807  00113A  A4D8               	btfss	status,2,c
   808  00113C  D00F               	goto	u880
   809                           
   810                           ;SSD1306_OLED.c: 83: I2C_Write(buffer[size]);
   811  00113E  90D8               	bcf	status,0,c
   812  001140  3428               	rlcf	displaySetCursor@size,w,c
   813  001142  6ED9               	movwf	fsr2l,c
   814  001144  3429               	rlcf	displaySetCursor@size+1,w,c
   815  001146  6EDA               	movwf	fsr2h,c
   816  001148  5015               	movf	_buffer,w,c
   817  00114A  26D9               	addwf	fsr2l,f,c
   818  00114C  5016               	movf	_buffer+1,w,c
   819  00114E  22DA               	addwfc	fsr2h,f,c
   820  001150  50DF               	movf	indf2,w,c
   821  001152  ECE5  F009         	call	_I2C_Write
   822  001156  4A28               	infsnz	displaySetCursor@size,f,c
   823  001158  2A29               	incf	displaySetCursor@size+1,f,c
   824  00115A  D7ED               	goto	l2674
   825  00115C                     u880:
   826                           
   827                           ;SSD1306_OLED.c: 84: }
   828                           ;SSD1306_OLED.c: 85: I2C_stop();
   829  00115C  EC31  F00A         	call	_I2C_stop	;wreg free
   830  001160  0012               	return		;funcret
   831  001162                     __end_of_displaySetCursor:
   832                           	opt stack 0
   833                           tblptru	equ	0xFF8
   834                           tblptrh	equ	0xFF7
   835                           tblptrl	equ	0xFF6
   836                           tablat	equ	0xFF5
   837                           intcon	equ	0xFF2
   838                           postinc0	equ	0xFEE
   839                           wreg	equ	0xFE8
   840                           postdec1	equ	0xFE5
   841                           fsr1h	equ	0xFE2
   842                           fsr1l	equ	0xFE1
   843                           indf2	equ	0xFDF
   844                           fsr2h	equ	0xFDA
   845                           fsr2l	equ	0xFD9
   846                           status	equ	0xFD8
   847                           
   848 ;; *************** function _memset *****************
   849 ;; Defined at:
   850 ;;		line 8 in file "C:\Program Files (x86)\Microchip\xc8\v1.45\sources\common\memset.c"
   851 ;; Parameters:    Size  Location     Type
   852 ;;  p1              2    0[COMRAM] PTR void 
   853 ;;		 -> NULL(0), 
   854 ;;  c               2    2[COMRAM] int 
   855 ;;  n               2    4[COMRAM] unsigned int 
   856 ;; Auto vars:     Size  Location     Type
   857 ;;  p               2    6[COMRAM] PTR unsigned char 
   858 ;;		 -> NULL(0), 
   859 ;; Return value:  Size  Location     Type
   860 ;;                  2    0[COMRAM] PTR void 
   861 ;; Registers used:
   862 ;;		wreg, fsr2l, fsr2h, status,2, status,0
   863 ;; Tracked objects:
   864 ;;		On entry : 0/0
   865 ;;		On exit  : 0/0
   866 ;;		Unchanged: 0/0
   867 ;; Data sizes:     COMRAM   BANK0   BANK1   BANK2   BANK3   BANK4   BANK5   BANK6   BANK7   BANK8   BANK9  BANK10  BANK1
      +1  BANK12  BANK13  BANK14
   868 ;;      Params:         6       0       0       0       0       0       0       0       0       0       0       0       
      +0       0       0       0
   869 ;;      Locals:         2       0       0       0       0       0       0       0       0       0       0       0       
      +0       0       0       0
   870 ;;      Temps:          0       0       0       0       0       0       0       0       0       0       0       0       
      +0       0       0       0
   871 ;;      Totals:         8       0       0       0       0       0       0       0       0       0       0       0       
      +0       0       0       0
   872 ;;Total ram usage:        8 bytes
   873 ;; Hardware stack levels used:    1
   874 ;; This function calls:
   875 ;;		Nothing
   876 ;; This function is called by:
   877 ;;		_displaySetCursor
   878 ;; This function uses a non-reentrant model
   879 ;;
   880                           
   881                           	psect	text3
   882  0012E0                     __ptext3:
   883                           	opt stack 0
   884  0012E0                     _memset:
   885                           	opt stack 29
   886                           
   887                           ;incstack = 0
   888  0012E0  C020  F026         	movff	memset@p1,memset@p
   889  0012E4  C021  F027         	movff	memset@p1+1,memset@p+1
   890  0012E8  D008               	goto	l1305
   891  0012EA                     l2610:
   892  0012EA  C026  FFD9         	movff	memset@p,fsr2l
   893  0012EE  C027  FFDA         	movff	memset@p+1,fsr2h
   894  0012F2  C022  FFDF         	movff	memset@c,indf2
   895  0012F6  4A26               	infsnz	memset@p,f,c
   896  0012F8  2A27               	incf	memset@p+1,f,c
   897  0012FA                     l1305:
   898  0012FA  0624               	decf	memset@n,f,c
   899  0012FC  A0D8               	btfss	status,0,c
   900  0012FE  0625               	decf	memset@n+1,f,c
   901  001300  2824               	incf	memset@n,w,c
   902  001302  E1F3               	bnz	l2610
   903  001304  2825               	incf	memset@n+1,w,c
   904  001306  B4D8               	btfsc	status,2,c
   905  001308  0012               	return	
   906  00130A  D7EF               	goto	l1306
   907  00130C                     __end_of_memset:
   908                           	opt stack 0
   909                           tblptru	equ	0xFF8
   910                           tblptrh	equ	0xFF7
   911                           tblptrl	equ	0xFF6
   912                           tablat	equ	0xFF5
   913                           intcon	equ	0xFF2
   914                           postinc0	equ	0xFEE
   915                           wreg	equ	0xFE8
   916                           postdec1	equ	0xFE5
   917                           fsr1h	equ	0xFE2
   918                           fsr1l	equ	0xFE1
   919                           indf2	equ	0xFDF
   920                           fsr2h	equ	0xFDA
   921                           fsr2l	equ	0xFD9
   922                           status	equ	0xFD8
   923                           
   924 ;; *************** function _displayWrite *****************
   925 ;; Defined at:
   926 ;;		line 88 in file "SSD1306_OLED.c"
   927 ;; Parameters:    Size  Location     Type
   928 ;;  x               1    wreg     unsigned char 
   929 ;;  y               1    1[COMRAM] unsigned char 
   930 ;;  address         2    2[COMRAM] int 
   931 ;; Auto vars:     Size  Location     Type
   932 ;;  x               1    4[COMRAM] unsigned char 
   933 ;; Return value:  Size  Location     Type
   934 ;;                  1    wreg      void 
   935 ;; Registers used:
   936 ;;		wreg, status,2, cstack
   937 ;; Tracked objects:
   938 ;;		On entry : 0/0
   939 ;;		On exit  : 0/0
   940 ;;		Unchanged: 0/0
   941 ;; Data sizes:     COMRAM   BANK0   BANK1   BANK2   BANK3   BANK4   BANK5   BANK6   BANK7   BANK8   BANK9  BANK10  BANK1
      +1  BANK12  BANK13  BANK14
   942 ;;      Params:         3       0       0       0       0       0       0       0       0       0       0       0       
      +0       0       0       0
   943 ;;      Locals:         1       0       0       0       0       0       0       0       0       0       0       0       
      +0       0       0       0
   944 ;;      Temps:          0       0       0       0       0       0       0       0       0       0       0       0       
      +0       0       0       0
   945 ;;      Totals:         4       0       0       0       0       0       0       0       0       0       0       0       
      +0       0       0       0
   946 ;;Total ram usage:        4 bytes
   947 ;; Hardware stack levels used:    1
   948 ;; Hardware stack levels required when called:    2
   949 ;; This function calls:
   950 ;;		_I2C_Write
   951 ;;		_I2C_start
   952 ;;		_I2C_stop
   953 ;; This function is called by:
   954 ;;		_displaySetCursor
   955 ;; This function uses a non-reentrant model
   956 ;;
   957                           
   958                           	psect	text4
   959  001386                     __ptext4:
   960                           	opt stack 0
   961  001386                     _displayWrite:
   962                           	opt stack 27
   963                           
   964                           ;incstack = 0
   965                           ;displayWrite@x stored from wreg
   966  001386  6E24               	movwf	displayWrite@x,c
   967                           
   968                           ;SSD1306_OLED.c: 89: I2C_start();
   969  001388  EC2C  F00A         	call	_I2C_start	;wreg free
   970                           
   971                           ;SSD1306_OLED.c: 90: I2C_Write(0x7A);
   972  00138C  0E7A               	movlw	122
   973  00138E  ECE5  F009         	call	_I2C_Write
   974                           
   975                           ;SSD1306_OLED.c: 91: I2C_Write(address);
   976  001392  5022               	movf	displayWrite@address,w,c
   977  001394  ECE5  F009         	call	_I2C_Write
   978                           
   979                           ;SSD1306_OLED.c: 92: I2C_Write(x);
   980  001398  5024               	movf	displayWrite@x,w,c
   981  00139A  ECE5  F009         	call	_I2C_Write
   982                           
   983                           ;SSD1306_OLED.c: 93: I2C_Write(y);
   984  00139E  5021               	movf	displayWrite@y,w,c
   985  0013A0  ECE5  F009         	call	_I2C_Write
   986                           
   987                           ;SSD1306_OLED.c: 94: I2C_stop();
   988  0013A4  EC31  F00A         	call	_I2C_stop	;wreg free
   989  0013A8  0012               	return		;funcret
   990  0013AA                     __end_of_displayWrite:
   991                           	opt stack 0
   992                           tblptru	equ	0xFF8
   993                           tblptrh	equ	0xFF7
   994                           tblptrl	equ	0xFF6
   995                           tablat	equ	0xFF5
   996                           intcon	equ	0xFF2
   997                           postinc0	equ	0xFEE
   998                           wreg	equ	0xFE8
   999                           postdec1	equ	0xFE5
  1000                           fsr1h	equ	0xFE2
  1001                           fsr1l	equ	0xFE1
  1002                           indf2	equ	0xFDF
  1003                           fsr2h	equ	0xFDA
  1004                           fsr2l	equ	0xFD9
  1005                           status	equ	0xFD8
  1006                           
  1007 ;; *************** function _SYSTEM_Initialize *****************
  1008 ;; Defined at:
  1009 ;;		line 50 in file "mcc_generated_files/mcc.c"
  1010 ;; Parameters:    Size  Location     Type
  1011 ;;		None
  1012 ;; Auto vars:     Size  Location     Type
  1013 ;;		None
  1014 ;; Return value:  Size  Location     Type
  1015 ;;                  1    wreg      void 
  1016 ;; Registers used:
  1017 ;;		wreg, status,2, status,0, prodl, prodh, cstack
  1018 ;; Tracked objects:
  1019 ;;		On entry : 0/0
  1020 ;;		On exit  : 0/0
  1021 ;;		Unchanged: 0/0
  1022 ;; Data sizes:     COMRAM   BANK0   BANK1   BANK2   BANK3   BANK4   BANK5   BANK6   BANK7   BANK8   BANK9  BANK10  BANK1
      +1  BANK12  BANK13  BANK14
  1023 ;;      Params:         0       0       0       0       0       0       0       0       0       0       0       0       
      +0       0       0       0
  1024 ;;      Locals:         0       0       0       0       0       0       0       0       0       0       0       0       
      +0       0       0       0
  1025 ;;      Temps:          0       0       0       0       0       0       0       0       0       0       0       0       
      +0       0       0       0
  1026 ;;      Totals:         0       0       0       0       0       0       0       0       0       0       0       0       
      +0       0       0       0
  1027 ;;Total ram usage:        0 bytes
  1028 ;; Hardware stack levels used:    1
  1029 ;; Hardware stack levels required when called:    2
  1030 ;; This function calls:
  1031 ;;		_EUSART1_Initialize
  1032 ;;		_I2C_Init
  1033 ;;		_OSCILLATOR_Initialize
  1034 ;;		_PIN_MANAGER_Initialize
  1035 ;;		_SPI1_Initialize
  1036 ;; This function is called by:
  1037 ;;		_main
  1038 ;; This function uses a non-reentrant model
  1039 ;;
  1040                           
  1041                           	psect	text5
  1042  0013E4                     __ptext5:
  1043                           	opt stack 0
  1044  0013E4                     _SYSTEM_Initialize:
  1045                           	opt stack 28
  1046                           
  1047                           ;mcc.c: 52: PIN_MANAGER_Initialize();
  1048                           
  1049                           ;incstack = 0
  1050  0013E4  EC10  F009         	call	_PIN_MANAGER_Initialize	;wreg free
  1051                           
  1052                           ;mcc.c: 53: OSCILLATOR_Initialize();
  1053  0013E8  EC86  F009         	call	_OSCILLATOR_Initialize	;wreg free
  1054                           
  1055                           ;mcc.c: 54: SPI1_Initialize();
  1056  0013EC  EC11  F00A         	call	_SPI1_Initialize	;wreg free
  1057                           
  1058                           ;mcc.c: 55: EUSART1_Initialize();
  1059  0013F0  EC51  F009         	call	_EUSART1_Initialize	;wreg free
  1060                           
  1061                           ;mcc.c: 56: I2C_Init(100);
  1062  0013F4  0E64               	movlw	100
  1063  0013F6  ECE6  F008         	call	_I2C_Init
  1064  0013FA  0012               	return		;funcret
  1065  0013FC                     __end_of_SYSTEM_Initialize:
  1066                           	opt stack 0
  1067                           tblptru	equ	0xFF8
  1068                           tblptrh	equ	0xFF7
  1069                           tblptrl	equ	0xFF6
  1070                           tablat	equ	0xFF5
  1071                           intcon	equ	0xFF2
  1072                           postinc0	equ	0xFEE
  1073                           wreg	equ	0xFE8
  1074                           postdec1	equ	0xFE5
  1075                           fsr1h	equ	0xFE2
  1076                           fsr1l	equ	0xFE1
  1077                           indf2	equ	0xFDF
  1078                           fsr2h	equ	0xFDA
  1079                           fsr2l	equ	0xFD9
  1080                           status	equ	0xFD8
  1081                           
  1082 ;; *************** function _SPI1_Initialize *****************
  1083 ;; Defined at:
  1084 ;;		line 65 in file "mcc_generated_files/spi1.c"
  1085 ;; Parameters:    Size  Location     Type
  1086 ;;		None
  1087 ;; Auto vars:     Size  Location     Type
  1088 ;;		None
  1089 ;; Return value:  Size  Location     Type
  1090 ;;                  1    wreg      void 
  1091 ;; Registers used:
  1092 ;;		wreg, status,2
  1093 ;; Tracked objects:
  1094 ;;		On entry : 0/0
  1095 ;;		On exit  : 0/0
  1096 ;;		Unchanged: 0/0
  1097 ;; Data sizes:     COMRAM   BANK0   BANK1   BANK2   BANK3   BANK4   BANK5   BANK6   BANK7   BANK8   BANK9  BANK10  BANK1
      +1  BANK12  BANK13  BANK14
  1098 ;;      Params:         0       0       0       0       0       0       0       0       0       0       0       0       
      +0       0       0       0
  1099 ;;      Locals:         0       0       0       0       0       0       0       0       0       0       0       0       
      +0       0       0       0
  1100 ;;      Temps:          0       0       0       0       0       0       0       0       0       0       0       0       
      +0       0       0       0
  1101 ;;      Totals:         0       0       0       0       0       0       0       0       0       0       0       0       
      +0       0       0       0
  1102 ;;Total ram usage:        0 bytes
  1103 ;; Hardware stack levels used:    1
  1104 ;; This function calls:
  1105 ;;		Nothing
  1106 ;; This function is called by:
  1107 ;;		_SYSTEM_Initialize
  1108 ;; This function uses a non-reentrant model
  1109 ;;
  1110                           
  1111                           	psect	text6
  1112  001422                     __ptext6:
  1113                           	opt stack 0
  1114  001422                     _SPI1_Initialize:
  1115                           	opt stack 29
  1116                           
  1117                           ;spi1.c: 70: SSP1STAT = 0x80;
  1118                           
  1119                           ;incstack = 0
  1120  001422  0E80               	movlw	128
  1121  001424  6EC7               	movwf	4039,c	;volatile
  1122                           
  1123                           ;spi1.c: 73: SSP1CON1 = 0x20;
  1124  001426  0E20               	movlw	32
  1125  001428  6EC6               	movwf	4038,c	;volatile
  1126                           
  1127                           ;spi1.c: 76: SSP1ADD = 0x00;
  1128  00142A  0E00               	movlw	0
  1129  00142C  6EC8               	movwf	4040,c	;volatile
  1130  00142E  0012               	return		;funcret
  1131  001430                     __end_of_SPI1_Initialize:
  1132                           	opt stack 0
  1133                           tblptru	equ	0xFF8
  1134                           tblptrh	equ	0xFF7
  1135                           tblptrl	equ	0xFF6
  1136                           tablat	equ	0xFF5
  1137                           intcon	equ	0xFF2
  1138                           postinc0	equ	0xFEE
  1139                           wreg	equ	0xFE8
  1140                           postdec1	equ	0xFE5
  1141                           fsr1h	equ	0xFE2
  1142                           fsr1l	equ	0xFE1
  1143                           indf2	equ	0xFDF
  1144                           fsr2h	equ	0xFDA
  1145                           fsr2l	equ	0xFD9
  1146                           status	equ	0xFD8
  1147                           
  1148 ;; *************** function _PIN_MANAGER_Initialize *****************
  1149 ;; Defined at:
  1150 ;;		line 52 in file "mcc_generated_files/pin_manager.c"
  1151 ;; Parameters:    Size  Location     Type
  1152 ;;		None
  1153 ;; Auto vars:     Size  Location     Type
  1154 ;;		None
  1155 ;; Return value:  Size  Location     Type
  1156 ;;                  1    wreg      void 
  1157 ;; Registers used:
  1158 ;;		wreg, status,2
  1159 ;; Tracked objects:
  1160 ;;		On entry : 0/0
  1161 ;;		On exit  : 0/0
  1162 ;;		Unchanged: 0/0
  1163 ;; Data sizes:     COMRAM   BANK0   BANK1   BANK2   BANK3   BANK4   BANK5   BANK6   BANK7   BANK8   BANK9  BANK10  BANK1
      +1  BANK12  BANK13  BANK14
  1164 ;;      Params:         0       0       0       0       0       0       0       0       0       0       0       0       
      +0       0       0       0
  1165 ;;      Locals:         0       0       0       0       0       0       0       0       0       0       0       0       
      +0       0       0       0
  1166 ;;      Temps:          0       0       0       0       0       0       0       0       0       0       0       0       
      +0       0       0       0
  1167 ;;      Totals:         0       0       0       0       0       0       0       0       0       0       0       0       
      +0       0       0       0
  1168 ;;Total ram usage:        0 bytes
  1169 ;; Hardware stack levels used:    1
  1170 ;; This function calls:
  1171 ;;		Nothing
  1172 ;; This function is called by:
  1173 ;;		_SYSTEM_Initialize
  1174 ;; This function uses a non-reentrant model
  1175 ;;
  1176                           
  1177                           	psect	text7
  1178  001220                     __ptext7:
  1179                           	opt stack 0
  1180  001220                     _PIN_MANAGER_Initialize:
  1181                           	opt stack 29
  1182                           
  1183                           ;pin_manager.c: 57: LATE = 0x04;
  1184                           
  1185                           ;incstack = 0
  1186  001220  0E04               	movlw	4
  1187  001222  6E8D               	movwf	3981,c	;volatile
  1188                           
  1189                           ;pin_manager.c: 58: LATD = 0x00;
  1190  001224  0E00               	movlw	0
  1191  001226  6E8C               	movwf	3980,c	;volatile
  1192                           
  1193                           ;pin_manager.c: 59: LATA = 0x00;
  1194  001228  0E00               	movlw	0
  1195  00122A  6E89               	movwf	3977,c	;volatile
  1196                           
  1197                           ;pin_manager.c: 60: LATB = 0x00;
  1198  00122C  0E00               	movlw	0
  1199  00122E  6E8A               	movwf	3978,c	;volatile
  1200                           
  1201                           ;pin_manager.c: 61: LATC = 0x01;
  1202  001230  0E01               	movlw	1
  1203  001232  6E8B               	movwf	3979,c	;volatile
  1204                           
  1205                           ;pin_manager.c: 66: TRISE = 0xC3;
  1206  001234  0EC3               	movlw	195
  1207  001236  6E96               	movwf	3990,c	;volatile
  1208                           
  1209                           ;pin_manager.c: 67: TRISA = 0xEF;
  1210  001238  0EEF               	movlw	239
  1211  00123A  6E92               	movwf	3986,c	;volatile
  1212                           
  1213                           ;pin_manager.c: 68: TRISB = 0xDF;
  1214  00123C  0EDF               	movlw	223
  1215  00123E  6E93               	movwf	3987,c	;volatile
  1216                           
  1217                           ;pin_manager.c: 69: TRISC = 0x96;
  1218  001240  0E96               	movlw	150
  1219  001242  6E94               	movwf	3988,c	;volatile
  1220                           
  1221                           ;pin_manager.c: 70: TRISD = 0xFF;
  1222  001244  6895               	setf	3989,c	;volatile
  1223                           
  1224                           ;pin_manager.c: 75: ANCON0 = 0x80;
  1225  001246  0E80               	movlw	128
  1226  001248  010F               	movlb	15	; () banked
  1227  00124A  6F48               	movwf	72,b	;volatile
  1228                           
  1229                           ;pin_manager.c: 76: ANCON1 = 0x10;
  1230  00124C  0E10               	movlw	16
  1231  00124E  6F49               	movwf	73,b	;volatile
  1232                           
  1233                           ; BSR set to: 15
  1234                           ;pin_manager.c: 81: INTCON2bits.nRBPU = 1;
  1235  001250  8EF1               	bsf	intcon2,7,c	;volatile
  1236                           
  1237                           ; BSR set to: 15
  1238                           ;pin_manager.c: 82: TRISEbits.RDPU = 1;
  1239  001252  8E96               	bsf	3990,7,c	;volatile
  1240                           
  1241                           ; BSR set to: 15
  1242                           ;pin_manager.c: 83: TRISEbits.REPU = 1;
  1243  001254  8C96               	bsf	3990,6,c	;volatile
  1244                           
  1245                           ;pin_manager.c: 88: ODCON1 = 0x00;
  1246  001256  0E00               	movlw	0
  1247  001258  6F42               	movwf	66,b	;volatile
  1248                           
  1249                           ;pin_manager.c: 89: ODCON2 = 0x00;
  1250  00125A  0E00               	movlw	0
  1251  00125C  6F41               	movwf	65,b	;volatile
  1252                           
  1253                           ;pin_manager.c: 90: ODCON3 = 0x00;
  1254  00125E  0E00               	movlw	0
  1255  001260  6F40               	movwf	64,b	;volatile
  1256                           
  1257                           ; BSR set to: 15
  1258  001262  0012               	return		;funcret
  1259  001264                     __end_of_PIN_MANAGER_Initialize:
  1260                           	opt stack 0
  1261                           tblptru	equ	0xFF8
  1262                           tblptrh	equ	0xFF7
  1263                           tblptrl	equ	0xFF6
  1264                           tablat	equ	0xFF5
  1265                           intcon	equ	0xFF2
  1266                           intcon2	equ	0xFF1
  1267                           postinc0	equ	0xFEE
  1268                           wreg	equ	0xFE8
  1269                           postdec1	equ	0xFE5
  1270                           fsr1h	equ	0xFE2
  1271                           fsr1l	equ	0xFE1
  1272                           indf2	equ	0xFDF
  1273                           fsr2h	equ	0xFDA
  1274                           fsr2l	equ	0xFD9
  1275                           status	equ	0xFD8
  1276                           
  1277 ;; *************** function _OSCILLATOR_Initialize *****************
  1278 ;; Defined at:
  1279 ;;		line 59 in file "mcc_generated_files/mcc.c"
  1280 ;; Parameters:    Size  Location     Type
  1281 ;;		None
  1282 ;; Auto vars:     Size  Location     Type
  1283 ;;		None
  1284 ;; Return value:  Size  Location     Type
  1285 ;;                  1    wreg      void 
  1286 ;; Registers used:
  1287 ;;		wreg, status,2
  1288 ;; Tracked objects:
  1289 ;;		On entry : 0/0
  1290 ;;		On exit  : 0/0
  1291 ;;		Unchanged: 0/0
  1292 ;; Data sizes:     COMRAM   BANK0   BANK1   BANK2   BANK3   BANK4   BANK5   BANK6   BANK7   BANK8   BANK9  BANK10  BANK1
      +1  BANK12  BANK13  BANK14
  1293 ;;      Params:         0       0       0       0       0       0       0       0       0       0       0       0       
      +0       0       0       0
  1294 ;;      Locals:         0       0       0       0       0       0       0       0       0       0       0       0       
      +0       0       0       0
  1295 ;;      Temps:          2       0       0       0       0       0       0       0       0       0       0       0       
      +0       0       0       0
  1296 ;;      Totals:         2       0       0       0       0       0       0       0       0       0       0       0       
      +0       0       0       0
  1297 ;;Total ram usage:        2 bytes
  1298 ;; Hardware stack levels used:    1
  1299 ;; This function calls:
  1300 ;;		Nothing
  1301 ;; This function is called by:
  1302 ;;		_SYSTEM_Initialize
  1303 ;; This function uses a non-reentrant model
  1304 ;;
  1305                           
  1306                           	psect	text8
  1307  00130C                     __ptext8:
  1308                           	opt stack 0
  1309  00130C                     _OSCILLATOR_Initialize:
  1310                           	opt stack 29
  1311                           
  1312                           ;mcc.c: 62: OSCCON = 0x70;
  1313                           
  1314                           ; BSR set to: 15
  1315                           ;incstack = 0
  1316  00130C  0E70               	movlw	112
  1317  00130E  6ED3               	movwf	4051,c	;volatile
  1318                           
  1319                           ;mcc.c: 64: OSCTUNE = 0x00;
  1320  001310  0E00               	movlw	0
  1321  001312  6E9B               	movwf	3995,c	;volatile
  1322                           
  1323                           ;mcc.c: 66: REFOCON = 0x00;
  1324  001314  0E00               	movlw	0
  1325  001316  010F               	movlb	15	; () banked
  1326  001318  6F3D               	movwf	61,b	;volatile
  1327                           
  1328                           ;mcc.c: 68: OSCCON2 = 0x14;
  1329  00131A  0E14               	movlw	20
  1330  00131C  6E87               	movwf	3975,c	;volatile
  1331                           
  1332                           ; BSR set to: 15
  1333                           ;mcc.c: 69: _delay((unsigned long)((500)*(16000000/4000.0)));
  1334  00131E  0E0B               	movlw	11
  1335  001320  6E21               	movwf	(??_OSCILLATOR_Initialize+1)& (0+255),c
  1336  001322  0E26               	movlw	38
  1337  001324  6E20               	movwf	??_OSCILLATOR_Initialize& (0+255),c
  1338  001326  0E5E               	movlw	94
  1339  001328                     u917:
  1340  001328  2EE8               	decfsz	wreg,f,c
  1341  00132A  D7FE               	bra	u917
  1342  00132C  2E20               	decfsz	??_OSCILLATOR_Initialize& (0+255),f,c
  1343  00132E  D7FC               	bra	u917
  1344  001330  2E21               	decfsz	(??_OSCILLATOR_Initialize+1)& (0+255),f,c
  1345  001332  D7FA               	bra	u917
  1346  001334  0012               	return		;funcret
  1347  001336                     __end_of_OSCILLATOR_Initialize:
  1348                           	opt stack 0
  1349                           tblptru	equ	0xFF8
  1350                           tblptrh	equ	0xFF7
  1351                           tblptrl	equ	0xFF6
  1352                           tablat	equ	0xFF5
  1353                           intcon	equ	0xFF2
  1354                           intcon2	equ	0xFF1
  1355                           postinc0	equ	0xFEE
  1356                           wreg	equ	0xFE8
  1357                           postdec1	equ	0xFE5
  1358                           fsr1h	equ	0xFE2
  1359                           fsr1l	equ	0xFE1
  1360                           indf2	equ	0xFDF
  1361                           fsr2h	equ	0xFDA
  1362                           fsr2l	equ	0xFD9
  1363                           status	equ	0xFD8
  1364                           
  1365 ;; *************** function _I2C_Init *****************
  1366 ;; Defined at:
  1367 ;;		line 20 in file "I2C.c"
  1368 ;; Parameters:    Size  Location     Type
  1369 ;;  F_clock         1    wreg     unsigned char 
  1370 ;; Auto vars:     Size  Location     Type
  1371 ;;  F_clock         1   20[COMRAM] unsigned char 
  1372 ;; Return value:  Size  Location     Type
  1373 ;;                  1    wreg      void 
  1374 ;; Registers used:
  1375 ;;		wreg, status,2, status,0, prodl, prodh, cstack
  1376 ;; Tracked objects:
  1377 ;;		On entry : 0/0
  1378 ;;		On exit  : 0/0
  1379 ;;		Unchanged: 0/0
  1380 ;; Data sizes:     COMRAM   BANK0   BANK1   BANK2   BANK3   BANK4   BANK5   BANK6   BANK7   BANK8   BANK9  BANK10  BANK1
      +1  BANK12  BANK13  BANK14
  1381 ;;      Params:         0       0       0       0       0       0       0       0       0       0       0       0       
      +0       0       0       0
  1382 ;;      Locals:         1       0       0       0       0       0       0       0       0       0       0       0       
      +0       0       0       0
  1383 ;;      Temps:          0       0       0       0       0       0       0       0       0       0       0       0       
      +0       0       0       0
  1384 ;;      Totals:         1       0       0       0       0       0       0       0       0       0       0       0       
      +0       0       0       0
  1385 ;;Total ram usage:        1 bytes
  1386 ;; Hardware stack levels used:    1
  1387 ;; Hardware stack levels required when called:    1
  1388 ;; This function calls:
  1389 ;;		___aldiv
  1390 ;;		___wmul
  1391 ;; This function is called by:
  1392 ;;		_SYSTEM_Initialize
  1393 ;; This function uses a non-reentrant model
  1394 ;;
  1395                           
  1396                           	psect	text9
  1397  0011CC                     __ptext9:
  1398                           	opt stack 0
  1399  0011CC                     _I2C_Init:
  1400                           	opt stack 28
  1401                           
  1402                           ;incstack = 0
  1403                           ;I2C_Init@F_clock stored from wreg
  1404  0011CC  6E34               	movwf	I2C_Init@F_clock,c
  1405                           
  1406                           ;I2C.c: 21: TRISDbits.TRISD0 = 1;
  1407  0011CE  8095               	bsf	3989,0,c	;volatile
  1408                           
  1409                           ;I2C.c: 22: TRISDbits.TRISD1 = 1;
  1410  0011D0  8295               	bsf	3989,1,c	;volatile
  1411                           
  1412                           ;I2C.c: 23: SSP2CON1bits.WCOL = 0;
  1413  0011D2  9E72               	bcf	3954,7,c	;volatile
  1414                           
  1415                           ;I2C.c: 24: SSP2CON1bits.SSPEN = 1;
  1416  0011D4  8A72               	bsf	3954,5,c	;volatile
  1417                           
  1418                           ;I2C.c: 25: SSP2CON1bits.SSPM = 0x08;
  1419  0011D6  5072               	movf	3954,w,c	;volatile
  1420  0011D8  0BF0               	andlw	-16
  1421  0011DA  0908               	iorlw	8
  1422  0011DC  6E72               	movwf	3954,c	;volatile
  1423                           
  1424                           ;I2C.c: 26: SSP2CON2bits.ACKDT = 0;
  1425  0011DE  9A71               	bcf	3953,5,c	;volatile
  1426                           
  1427                           ;I2C.c: 27: SSP2CON2bits.ACKEN = 1;
  1428  0011E0  8871               	bsf	3953,4,c	;volatile
  1429                           
  1430                           ;I2C.c: 28: SSP2ADD = (16000000 / ((F_clock * 1000) * 4)) - 1;
  1431  0011E2  0E00               	movlw	0
  1432  0011E4  6E26               	movwf	___aldiv@dividend,c
  1433  0011E6  0E24               	movlw	36
  1434  0011E8  6E27               	movwf	___aldiv@dividend+1,c
  1435  0011EA  0EF4               	movlw	244
  1436  0011EC  6E28               	movwf	___aldiv@dividend+2,c
  1437  0011EE  0E00               	movlw	0
  1438  0011F0  6E29               	movwf	___aldiv@dividend+3,c
  1439  0011F2  C034  F020         	movff	I2C_Init@F_clock,___wmul@multiplier
  1440  0011F6  6A21               	clrf	___wmul@multiplier+1,c
  1441  0011F8  0E0F               	movlw	15
  1442  0011FA  6E23               	movwf	___wmul@multiplicand+1,c
  1443  0011FC  0EA0               	movlw	160
  1444  0011FE  6E22               	movwf	___wmul@multiplicand,c
  1445  001200  ECB0  F009         	call	___wmul	;wreg free
  1446  001204  C020  F02A         	movff	?___wmul,___aldiv@divisor
  1447  001208  C021  F02B         	movff	?___wmul+1,___aldiv@divisor+1
  1448  00120C  0E00               	movlw	0
  1449  00120E  BE2B               	btfsc	___aldiv@divisor+1,7,c
  1450  001210  0EFF               	movlw	-1
  1451  001212  6E2C               	movwf	___aldiv@divisor+2,c
  1452  001214  6E2D               	movwf	___aldiv@divisor+3,c
  1453  001216  EC09  F008         	call	___aldiv	;wreg free
  1454  00121A  0426               	decf	?___aldiv,w,c
  1455  00121C  6E74               	movwf	3956,c	;volatile
  1456  00121E  0012               	return		;funcret
  1457  001220                     __end_of_I2C_Init:
  1458                           	opt stack 0
  1459                           tblptru	equ	0xFF8
  1460                           tblptrh	equ	0xFF7
  1461                           tblptrl	equ	0xFF6
  1462                           tablat	equ	0xFF5
  1463                           intcon	equ	0xFF2
  1464                           intcon2	equ	0xFF1
  1465                           postinc0	equ	0xFEE
  1466                           wreg	equ	0xFE8
  1467                           postdec1	equ	0xFE5
  1468                           fsr1h	equ	0xFE2
  1469                           fsr1l	equ	0xFE1
  1470                           indf2	equ	0xFDF
  1471                           fsr2h	equ	0xFDA
  1472                           fsr2l	equ	0xFD9
  1473                           status	equ	0xFD8
  1474                           
  1475 ;; *************** function ___wmul *****************
  1476 ;; Defined at:
  1477 ;;		line 15 in file "C:\Program Files (x86)\Microchip\xc8\v1.45\sources\common\Umul16.c"
  1478 ;; Parameters:    Size  Location     Type
  1479 ;;  multiplier      2    0[COMRAM] unsigned int 
  1480 ;;  multiplicand    2    2[COMRAM] unsigned int 
  1481 ;; Auto vars:     Size  Location     Type
  1482 ;;  product         2    4[COMRAM] unsigned int 
  1483 ;; Return value:  Size  Location     Type
  1484 ;;                  2    0[COMRAM] unsigned int 
  1485 ;; Registers used:
  1486 ;;		wreg, status,2, status,0, prodl, prodh
  1487 ;; Tracked objects:
  1488 ;;		On entry : 0/0
  1489 ;;		On exit  : 0/0
  1490 ;;		Unchanged: 0/0
  1491 ;; Data sizes:     COMRAM   BANK0   BANK1   BANK2   BANK3   BANK4   BANK5   BANK6   BANK7   BANK8   BANK9  BANK10  BANK1
      +1  BANK12  BANK13  BANK14
  1492 ;;      Params:         4       0       0       0       0       0       0       0       0       0       0       0       
      +0       0       0       0
  1493 ;;      Locals:         2       0       0       0       0       0       0       0       0       0       0       0       
      +0       0       0       0
  1494 ;;      Temps:          0       0       0       0       0       0       0       0       0       0       0       0       
      +0       0       0       0
  1495 ;;      Totals:         6       0       0       0       0       0       0       0       0       0       0       0       
      +0       0       0       0
  1496 ;;Total ram usage:        6 bytes
  1497 ;; Hardware stack levels used:    1
  1498 ;; This function calls:
  1499 ;;		Nothing
  1500 ;; This function is called by:
  1501 ;;		_I2C_Init
  1502 ;; This function uses a non-reentrant model
  1503 ;;
  1504                           
  1505                           	psect	text10
  1506  001360                     __ptext10:
  1507                           	opt stack 0
  1508  001360                     ___wmul:
  1509                           	opt stack 28
  1510                           
  1511                           ;incstack = 0
  1512  001360  5020               	movf	___wmul@multiplier,w,c
  1513  001362  0222               	mulwf	___wmul@multiplicand,c
  1514  001364  CFF3 F024          	movff	prodl,___wmul@product
  1515  001368  CFF4 F025          	movff	prodh,___wmul@product+1
  1516  00136C  5020               	movf	___wmul@multiplier,w,c
  1517  00136E  0223               	mulwf	___wmul@multiplicand+1,c
  1518  001370  50F3               	movf	prodl,w,c
  1519  001372  2625               	addwf	___wmul@product+1,f,c
  1520  001374  5021               	movf	___wmul@multiplier+1,w,c
  1521  001376  0222               	mulwf	___wmul@multiplicand,c
  1522  001378  50F3               	movf	prodl,w,c
  1523  00137A  2625               	addwf	___wmul@product+1,f,c
  1524  00137C  C024  F020         	movff	___wmul@product,?___wmul
  1525  001380  C025  F021         	movff	___wmul@product+1,?___wmul+1
  1526  001384  0012               	return	
  1527  001386                     __end_of___wmul:
  1528                           	opt stack 0
  1529                           tblptru	equ	0xFF8
  1530                           tblptrh	equ	0xFF7
  1531                           tblptrl	equ	0xFF6
  1532                           tablat	equ	0xFF5
  1533                           prodh	equ	0xFF4
  1534                           prodl	equ	0xFF3
  1535                           intcon	equ	0xFF2
  1536                           intcon2	equ	0xFF1
  1537                           postinc0	equ	0xFEE
  1538                           wreg	equ	0xFE8
  1539                           postdec1	equ	0xFE5
  1540                           fsr1h	equ	0xFE2
  1541                           fsr1l	equ	0xFE1
  1542                           indf2	equ	0xFDF
  1543                           fsr2h	equ	0xFDA
  1544                           fsr2l	equ	0xFD9
  1545                           status	equ	0xFD8
  1546                           
  1547 ;; *************** function ___aldiv *****************
  1548 ;; Defined at:
  1549 ;;		line 8 in file "C:\Program Files (x86)\Microchip\xc8\v1.45\sources\common\aldiv.c"
  1550 ;; Parameters:    Size  Location     Type
  1551 ;;  dividend        4    6[COMRAM] long 
  1552 ;;  divisor         4   10[COMRAM] long 
  1553 ;; Auto vars:     Size  Location     Type
  1554 ;;  quotient        4   16[COMRAM] long 
  1555 ;;  sign            1   15[COMRAM] unsigned char 
  1556 ;;  counter         1   14[COMRAM] unsigned char 
  1557 ;; Return value:  Size  Location     Type
  1558 ;;                  4    6[COMRAM] long 
  1559 ;; Registers used:
  1560 ;;		wreg, status,2, status,0
  1561 ;; Tracked objects:
  1562 ;;		On entry : 0/0
  1563 ;;		On exit  : 0/0
  1564 ;;		Unchanged: 0/0
  1565 ;; Data sizes:     COMRAM   BANK0   BANK1   BANK2   BANK3   BANK4   BANK5   BANK6   BANK7   BANK8   BANK9  BANK10  BANK1
      +1  BANK12  BANK13  BANK14
  1566 ;;      Params:         8       0       0       0       0       0       0       0       0       0       0       0       
      +0       0       0       0
  1567 ;;      Locals:         6       0       0       0       0       0       0       0       0       0       0       0       
      +0       0       0       0
  1568 ;;      Temps:          0       0       0       0       0       0       0       0       0       0       0       0       
      +0       0       0       0
  1569 ;;      Totals:        14       0       0       0       0       0       0       0       0       0       0       0       
      +0       0       0       0
  1570 ;;Total ram usage:       14 bytes
  1571 ;; Hardware stack levels used:    1
  1572 ;; This function calls:
  1573 ;;		Nothing
  1574 ;; This function is called by:
  1575 ;;		_I2C_Init
  1576 ;; This function uses a non-reentrant model
  1577 ;;
  1578                           
  1579                           	psect	text11
  1580  001012                     __ptext11:
  1581                           	opt stack 0
  1582  001012                     ___aldiv:
  1583                           	opt stack 28
  1584                           
  1585                           ;incstack = 0
  1586  001012  0E00               	movlw	0
  1587  001014  6E2F               	movwf	___aldiv@sign,c
  1588  001016  AE2D               	btfss	___aldiv@divisor+3,7,c
  1589  001018  D00A               	goto	l919
  1590  00101A  1E2D               	comf	___aldiv@divisor+3,f,c
  1591  00101C  1E2C               	comf	___aldiv@divisor+2,f,c
  1592  00101E  1E2B               	comf	___aldiv@divisor+1,f,c
  1593  001020  6C2A               	negf	___aldiv@divisor,c
  1594  001022  0E00               	movlw	0
  1595  001024  222B               	addwfc	___aldiv@divisor+1,f,c
  1596  001026  222C               	addwfc	___aldiv@divisor+2,f,c
  1597  001028  222D               	addwfc	___aldiv@divisor+3,f,c
  1598  00102A  0E01               	movlw	1
  1599  00102C  6E2F               	movwf	___aldiv@sign,c
  1600  00102E                     l919:
  1601  00102E  AE29               	btfss	___aldiv@dividend+3,7,c
  1602  001030  D00A               	goto	l920
  1603  001032  1E29               	comf	___aldiv@dividend+3,f,c
  1604  001034  1E28               	comf	___aldiv@dividend+2,f,c
  1605  001036  1E27               	comf	___aldiv@dividend+1,f,c
  1606  001038  6C26               	negf	___aldiv@dividend,c
  1607  00103A  0E00               	movlw	0
  1608  00103C  2227               	addwfc	___aldiv@dividend+1,f,c
  1609  00103E  2228               	addwfc	___aldiv@dividend+2,f,c
  1610  001040  2229               	addwfc	___aldiv@dividend+3,f,c
  1611  001042  0E01               	movlw	1
  1612  001044  1A2F               	xorwf	___aldiv@sign,f,c
  1613  001046                     l920:
  1614  001046  0E00               	movlw	0
  1615  001048  6E30               	movwf	___aldiv@quotient,c
  1616  00104A  0E00               	movlw	0
  1617  00104C  6E31               	movwf	___aldiv@quotient+1,c
  1618  00104E  0E00               	movlw	0
  1619  001050  6E32               	movwf	___aldiv@quotient+2,c
  1620  001052  0E00               	movlw	0
  1621  001054  6E33               	movwf	___aldiv@quotient+3,c
  1622  001056  502A               	movf	___aldiv@divisor,w,c
  1623  001058  102B               	iorwf	___aldiv@divisor+1,w,c
  1624  00105A  102C               	iorwf	___aldiv@divisor+2,w,c
  1625  00105C  102D               	iorwf	___aldiv@divisor+3,w,c
  1626  00105E  B4D8               	btfsc	status,2,c
  1627  001060  D02A               	goto	l927
  1628  001062  0E01               	movlw	1
  1629  001064  6E2E               	movwf	___aldiv@counter,c
  1630  001066  D006               	goto	l922
  1631  001068  90D8               	bcf	status,0,c
  1632  00106A  362A               	rlcf	___aldiv@divisor,f,c
  1633  00106C  362B               	rlcf	___aldiv@divisor+1,f,c
  1634  00106E  362C               	rlcf	___aldiv@divisor+2,f,c
  1635  001070  362D               	rlcf	___aldiv@divisor+3,f,c
  1636  001072  2A2E               	incf	___aldiv@counter,f,c
  1637  001074                     l922:
  1638  001074  AE2D               	btfss	___aldiv@divisor+3,7,c
  1639  001076  D7F8               	goto	l923
  1640  001078                     u820:
  1641  001078  90D8               	bcf	status,0,c
  1642  00107A  3630               	rlcf	___aldiv@quotient,f,c
  1643  00107C  3631               	rlcf	___aldiv@quotient+1,f,c
  1644  00107E  3632               	rlcf	___aldiv@quotient+2,f,c
  1645  001080  3633               	rlcf	___aldiv@quotient+3,f,c
  1646  001082  502A               	movf	___aldiv@divisor,w,c
  1647  001084  5C26               	subwf	___aldiv@dividend,w,c
  1648  001086  502B               	movf	___aldiv@divisor+1,w,c
  1649  001088  5827               	subwfb	___aldiv@dividend+1,w,c
  1650  00108A  502C               	movf	___aldiv@divisor+2,w,c
  1651  00108C  5828               	subwfb	___aldiv@dividend+2,w,c
  1652  00108E  502D               	movf	___aldiv@divisor+3,w,c
  1653  001090  5829               	subwfb	___aldiv@dividend+3,w,c
  1654  001092  A0D8               	btfss	status,0,c
  1655  001094  D009               	goto	l926
  1656  001096  502A               	movf	___aldiv@divisor,w,c
  1657  001098  5E26               	subwf	___aldiv@dividend,f,c
  1658  00109A  502B               	movf	___aldiv@divisor+1,w,c
  1659  00109C  5A27               	subwfb	___aldiv@dividend+1,f,c
  1660  00109E  502C               	movf	___aldiv@divisor+2,w,c
  1661  0010A0  5A28               	subwfb	___aldiv@dividend+2,f,c
  1662  0010A2  502D               	movf	___aldiv@divisor+3,w,c
  1663  0010A4  5A29               	subwfb	___aldiv@dividend+3,f,c
  1664  0010A6  8030               	bsf	___aldiv@quotient,0,c
  1665  0010A8                     l926:
  1666  0010A8  90D8               	bcf	status,0,c
  1667  0010AA  322D               	rrcf	___aldiv@divisor+3,f,c
  1668  0010AC  322C               	rrcf	___aldiv@divisor+2,f,c
  1669  0010AE  322B               	rrcf	___aldiv@divisor+1,f,c
  1670  0010B0  322A               	rrcf	___aldiv@divisor,f,c
  1671  0010B2  2E2E               	decfsz	___aldiv@counter,f,c
  1672  0010B4  D7E1               	goto	u820
  1673  0010B6                     l927:
  1674  0010B6  502F               	movf	___aldiv@sign,w,c
  1675  0010B8  B4D8               	btfsc	status,2,c
  1676  0010BA  D008               	goto	l928
  1677  0010BC  1E33               	comf	___aldiv@quotient+3,f,c
  1678  0010BE  1E32               	comf	___aldiv@quotient+2,f,c
  1679  0010C0  1E31               	comf	___aldiv@quotient+1,f,c
  1680  0010C2  6C30               	negf	___aldiv@quotient,c
  1681  0010C4  0E00               	movlw	0
  1682  0010C6  2231               	addwfc	___aldiv@quotient+1,f,c
  1683  0010C8  2232               	addwfc	___aldiv@quotient+2,f,c
  1684  0010CA  2233               	addwfc	___aldiv@quotient+3,f,c
  1685  0010CC                     l928:
  1686  0010CC  C030  F026         	movff	___aldiv@quotient,?___aldiv
  1687  0010D0  C031  F027         	movff	___aldiv@quotient+1,?___aldiv+1
  1688  0010D4  C032  F028         	movff	___aldiv@quotient+2,?___aldiv+2
  1689  0010D8  C033  F029         	movff	___aldiv@quotient+3,?___aldiv+3
  1690  0010DC  0012               	return	
  1691  0010DE                     __end_of___aldiv:
  1692                           	opt stack 0
  1693                           tblptru	equ	0xFF8
  1694                           tblptrh	equ	0xFF7
  1695                           tblptrl	equ	0xFF6
  1696                           tablat	equ	0xFF5
  1697                           prodh	equ	0xFF4
  1698                           prodl	equ	0xFF3
  1699                           intcon	equ	0xFF2
  1700                           intcon2	equ	0xFF1
  1701                           postinc0	equ	0xFEE
  1702                           wreg	equ	0xFE8
  1703                           postdec1	equ	0xFE5
  1704                           fsr1h	equ	0xFE2
  1705                           fsr1l	equ	0xFE1
  1706                           indf2	equ	0xFDF
  1707                           fsr2h	equ	0xFDA
  1708                           fsr2l	equ	0xFD9
  1709                           status	equ	0xFD8
  1710                           
  1711 ;; *************** function _EUSART1_Initialize *****************
  1712 ;; Defined at:
  1713 ;;		line 68 in file "mcc_generated_files/eusart1.c"
  1714 ;; Parameters:    Size  Location     Type
  1715 ;;		None
  1716 ;; Auto vars:     Size  Location     Type
  1717 ;;		None
  1718 ;; Return value:  Size  Location     Type
  1719 ;;                  1    wreg      void 
  1720 ;; Registers used:
  1721 ;;		wreg, status,2, status,0, cstack
  1722 ;; Tracked objects:
  1723 ;;		On entry : 0/0
  1724 ;;		On exit  : 0/0
  1725 ;;		Unchanged: 0/0
  1726 ;; Data sizes:     COMRAM   BANK0   BANK1   BANK2   BANK3   BANK4   BANK5   BANK6   BANK7   BANK8   BANK9  BANK10  BANK1
      +1  BANK12  BANK13  BANK14
  1727 ;;      Params:         0       0       0       0       0       0       0       0       0       0       0       0       
      +0       0       0       0
  1728 ;;      Locals:         0       0       0       0       0       0       0       0       0       0       0       0       
      +0       0       0       0
  1729 ;;      Temps:          0       0       0       0       0       0       0       0       0       0       0       0       
      +0       0       0       0
  1730 ;;      Totals:         0       0       0       0       0       0       0       0       0       0       0       0       
      +0       0       0       0
  1731 ;;Total ram usage:        0 bytes
  1732 ;; Hardware stack levels used:    1
  1733 ;; Hardware stack levels required when called:    1
  1734 ;; This function calls:
  1735 ;;		_EUSART1_SetErrorHandler
  1736 ;;		_EUSART1_SetFramingErrorHandler
  1737 ;;		_EUSART1_SetOverrunErrorHandler
  1738 ;; This function is called by:
  1739 ;;		_SYSTEM_Initialize
  1740 ;; This function uses a non-reentrant model
  1741 ;;
  1742                           
  1743                           	psect	text12
  1744  0012A2                     __ptext12:
  1745                           	opt stack 0
  1746  0012A2                     _EUSART1_Initialize:
  1747                           	opt stack 28
  1748                           
  1749                           ;eusart1.c: 72: BAUDCON1 = 0x18;
  1750                           
  1751                           ;incstack = 0
  1752  0012A2  0E18               	movlw	24
  1753  0012A4  6E7E               	movwf	3966,c	;volatile
  1754                           
  1755                           ;eusart1.c: 75: RCSTA1 = 0x98;
  1756  0012A6  0E98               	movlw	152
  1757  0012A8  6EAC               	movwf	4012,c	;volatile
  1758                           
  1759                           ;eusart1.c: 78: TXSTA1 = 0x24;
  1760  0012AA  0E24               	movlw	36
  1761  0012AC  6EAD               	movwf	4013,c	;volatile
  1762                           
  1763                           ;eusart1.c: 81: SPBRG1 = 0xCF;
  1764  0012AE  0ECF               	movlw	207
  1765  0012B0  6EB0               	movwf	4016,c	;volatile
  1766                           
  1767                           ;eusart1.c: 84: SPBRGH1 = 0x00;
  1768  0012B2  0E00               	movlw	0
  1769  0012B4  6E7F               	movwf	3967,c	;volatile
  1770                           
  1771                           ;eusart1.c: 87: EUSART1_SetFramingErrorHandler(EUSART1_DefaultFramingErrorHandler);
  1772  0012B6  0E00               	movlw	0
  1773  0012B8  6E20               	movwf	EUSART1_SetFramingErrorHandler@interruptHandler,c
  1774  0012BA  0E00               	movlw	0
  1775  0012BC  6E21               	movwf	EUSART1_SetFramingErrorHandler@interruptHandler+1,c
  1776  0012BE  EC22  F00A         	call	_EUSART1_SetFramingErrorHandler	;wreg free
  1777                           
  1778                           ;eusart1.c: 88: EUSART1_SetOverrunErrorHandler(EUSART1_DefaultOverrunErrorHandler);
  1779  0012C2  0E00               	movlw	0
  1780  0012C4  6E20               	movwf	EUSART1_SetOverrunErrorHandler@interruptHandler,c
  1781  0012C6  0E00               	movlw	0
  1782  0012C8  6E21               	movwf	EUSART1_SetOverrunErrorHandler@interruptHandler+1,c
  1783  0012CA  EC1D  F00A         	call	_EUSART1_SetOverrunErrorHandler	;wreg free
  1784                           
  1785                           ;eusart1.c: 89: EUSART1_SetErrorHandler(EUSART1_DefaultErrorHandler);
  1786  0012CE  0E00               	movlw	0
  1787  0012D0  6E20               	movwf	EUSART1_SetErrorHandler@interruptHandler,c
  1788  0012D2  0E00               	movlw	0
  1789  0012D4  6E21               	movwf	EUSART1_SetErrorHandler@interruptHandler+1,c
  1790  0012D6  EC27  F00A         	call	_EUSART1_SetErrorHandler	;wreg free
  1791                           
  1792                           ;eusart1.c: 91: eusart1RxLastError.status = 0;
  1793  0012DA  0E00               	movlw	0
  1794  0012DC  6E1F               	movwf	_eusart1RxLastError,c	;volatile
  1795  0012DE  0012               	return		;funcret
  1796  0012E0                     __end_of_EUSART1_Initialize:
  1797                           	opt stack 0
  1798                           tblptru	equ	0xFF8
  1799                           tblptrh	equ	0xFF7
  1800                           tblptrl	equ	0xFF6
  1801                           tablat	equ	0xFF5
  1802                           prodh	equ	0xFF4
  1803                           prodl	equ	0xFF3
  1804                           intcon	equ	0xFF2
  1805                           intcon2	equ	0xFF1
  1806                           postinc0	equ	0xFEE
  1807                           wreg	equ	0xFE8
  1808                           postdec1	equ	0xFE5
  1809                           fsr1h	equ	0xFE2
  1810                           fsr1l	equ	0xFE1
  1811                           indf2	equ	0xFDF
  1812                           fsr2h	equ	0xFDA
  1813                           fsr2l	equ	0xFD9
  1814                           status	equ	0xFD8
  1815                           
  1816 ;; *************** function _EUSART1_SetOverrunErrorHandler *****************
  1817 ;; Defined at:
  1818 ;;		line 170 in file "mcc_generated_files/eusart1.c"
  1819 ;; Parameters:    Size  Location     Type
  1820 ;;  interruptHan    2    0[COMRAM] PTR FTN()void 
  1821 ;;		 -> EUSART1_DefaultOverrunErrorHandler(1), 
  1822 ;; Auto vars:     Size  Location     Type
  1823 ;;		None
  1824 ;; Return value:  Size  Location     Type
  1825 ;;                  1    wreg      void 
  1826 ;; Registers used:
  1827 ;;		wreg, status,2, status,0
  1828 ;; Tracked objects:
  1829 ;;		On entry : 0/0
  1830 ;;		On exit  : 0/0
  1831 ;;		Unchanged: 0/0
  1832 ;; Data sizes:     COMRAM   BANK0   BANK1   BANK2   BANK3   BANK4   BANK5   BANK6   BANK7   BANK8   BANK9  BANK10  BANK1
      +1  BANK12  BANK13  BANK14
  1833 ;;      Params:         2       0       0       0       0       0       0       0       0       0       0       0       
      +0       0       0       0
  1834 ;;      Locals:         0       0       0       0       0       0       0       0       0       0       0       0       
      +0       0       0       0
  1835 ;;      Temps:          0       0       0       0       0       0       0       0       0       0       0       0       
      +0       0       0       0
  1836 ;;      Totals:         2       0       0       0       0       0       0       0       0       0       0       0       
      +0       0       0       0
  1837 ;;Total ram usage:        2 bytes
  1838 ;; Hardware stack levels used:    1
  1839 ;; This function calls:
  1840 ;;		Nothing
  1841 ;; This function is called by:
  1842 ;;		_EUSART1_Initialize
  1843 ;; This function uses a non-reentrant model
  1844 ;;
  1845                           
  1846                           	psect	text13
  1847  00143A                     __ptext13:
  1848                           	opt stack 0
  1849  00143A                     _EUSART1_SetOverrunErrorHandler:
  1850                           	opt stack 28
  1851                           
  1852                           ;eusart1.c: 171: EUSART1_OverrunErrorHandler = interruptHandler;
  1853                           
  1854                           ;incstack = 0
  1855  00143A  C020  F01B         	movff	EUSART1_SetOverrunErrorHandler@interruptHandler,_EUSART1_OverrunErrorHandler
  1856  00143E  C021  F01C         	movff	EUSART1_SetOverrunErrorHandler@interruptHandler+1,_EUSART1_OverrunErrorHandler+1
  1857  001442  0012               	return		;funcret
  1858  001444                     __end_of_EUSART1_SetOverrunErrorHandler:
  1859                           	opt stack 0
  1860                           tblptru	equ	0xFF8
  1861                           tblptrh	equ	0xFF7
  1862                           tblptrl	equ	0xFF6
  1863                           tablat	equ	0xFF5
  1864                           prodh	equ	0xFF4
  1865                           prodl	equ	0xFF3
  1866                           intcon	equ	0xFF2
  1867                           intcon2	equ	0xFF1
  1868                           postinc0	equ	0xFEE
  1869                           wreg	equ	0xFE8
  1870                           postdec1	equ	0xFE5
  1871                           fsr1h	equ	0xFE2
  1872                           fsr1l	equ	0xFE1
  1873                           indf2	equ	0xFDF
  1874                           fsr2h	equ	0xFDA
  1875                           fsr2l	equ	0xFD9
  1876                           status	equ	0xFD8
  1877                           
  1878 ;; *************** function _EUSART1_SetFramingErrorHandler *****************
  1879 ;; Defined at:
  1880 ;;		line 166 in file "mcc_generated_files/eusart1.c"
  1881 ;; Parameters:    Size  Location     Type
  1882 ;;  interruptHan    2    0[COMRAM] PTR FTN()void 
  1883 ;;		 -> EUSART1_DefaultFramingErrorHandler(1), 
  1884 ;; Auto vars:     Size  Location     Type
  1885 ;;		None
  1886 ;; Return value:  Size  Location     Type
  1887 ;;                  1    wreg      void 
  1888 ;; Registers used:
  1889 ;;		wreg, status,2, status,0
  1890 ;; Tracked objects:
  1891 ;;		On entry : 0/0
  1892 ;;		On exit  : 0/0
  1893 ;;		Unchanged: 0/0
  1894 ;; Data sizes:     COMRAM   BANK0   BANK1   BANK2   BANK3   BANK4   BANK5   BANK6   BANK7   BANK8   BANK9  BANK10  BANK1
      +1  BANK12  BANK13  BANK14
  1895 ;;      Params:         2       0       0       0       0       0       0       0       0       0       0       0       
      +0       0       0       0
  1896 ;;      Locals:         0       0       0       0       0       0       0       0       0       0       0       0       
      +0       0       0       0
  1897 ;;      Temps:          0       0       0       0       0       0       0       0       0       0       0       0       
      +0       0       0       0
  1898 ;;      Totals:         2       0       0       0       0       0       0       0       0       0       0       0       
      +0       0       0       0
  1899 ;;Total ram usage:        2 bytes
  1900 ;; Hardware stack levels used:    1
  1901 ;; This function calls:
  1902 ;;		Nothing
  1903 ;; This function is called by:
  1904 ;;		_EUSART1_Initialize
  1905 ;; This function uses a non-reentrant model
  1906 ;;
  1907                           
  1908                           	psect	text14
  1909  001444                     __ptext14:
  1910                           	opt stack 0
  1911  001444                     _EUSART1_SetFramingErrorHandler:
  1912                           	opt stack 28
  1913                           
  1914                           ;eusart1.c: 167: EUSART1_FramingErrorHandler = interruptHandler;
  1915                           
  1916                           ;incstack = 0
  1917  001444  C020  F01D         	movff	EUSART1_SetFramingErrorHandler@interruptHandler,_EUSART1_FramingErrorHandler
  1918  001448  C021  F01E         	movff	EUSART1_SetFramingErrorHandler@interruptHandler+1,_EUSART1_FramingErrorHandler+1
  1919  00144C  0012               	return		;funcret
  1920  00144E                     __end_of_EUSART1_SetFramingErrorHandler:
  1921                           	opt stack 0
  1922                           tblptru	equ	0xFF8
  1923                           tblptrh	equ	0xFF7
  1924                           tblptrl	equ	0xFF6
  1925                           tablat	equ	0xFF5
  1926                           prodh	equ	0xFF4
  1927                           prodl	equ	0xFF3
  1928                           intcon	equ	0xFF2
  1929                           intcon2	equ	0xFF1
  1930                           postinc0	equ	0xFEE
  1931                           wreg	equ	0xFE8
  1932                           postdec1	equ	0xFE5
  1933                           fsr1h	equ	0xFE2
  1934                           fsr1l	equ	0xFE1
  1935                           indf2	equ	0xFDF
  1936                           fsr2h	equ	0xFDA
  1937                           fsr2l	equ	0xFD9
  1938                           status	equ	0xFD8
  1939                           
  1940 ;; *************** function _EUSART1_SetErrorHandler *****************
  1941 ;; Defined at:
  1942 ;;		line 174 in file "mcc_generated_files/eusart1.c"
  1943 ;; Parameters:    Size  Location     Type
  1944 ;;  interruptHan    2    0[COMRAM] PTR FTN()void 
  1945 ;;		 -> EUSART1_DefaultErrorHandler(1), 
  1946 ;; Auto vars:     Size  Location     Type
  1947 ;;		None
  1948 ;; Return value:  Size  Location     Type
  1949 ;;                  1    wreg      void 
  1950 ;; Registers used:
  1951 ;;		wreg, status,2, status,0
  1952 ;; Tracked objects:
  1953 ;;		On entry : 0/0
  1954 ;;		On exit  : 0/0
  1955 ;;		Unchanged: 0/0
  1956 ;; Data sizes:     COMRAM   BANK0   BANK1   BANK2   BANK3   BANK4   BANK5   BANK6   BANK7   BANK8   BANK9  BANK10  BANK1
      +1  BANK12  BANK13  BANK14
  1957 ;;      Params:         2       0       0       0       0       0       0       0       0       0       0       0       
      +0       0       0       0
  1958 ;;      Locals:         0       0       0       0       0       0       0       0       0       0       0       0       
      +0       0       0       0
  1959 ;;      Temps:          0       0       0       0       0       0       0       0       0       0       0       0       
      +0       0       0       0
  1960 ;;      Totals:         2       0       0       0       0       0       0       0       0       0       0       0       
      +0       0       0       0
  1961 ;;Total ram usage:        2 bytes
  1962 ;; Hardware stack levels used:    1
  1963 ;; This function calls:
  1964 ;;		Nothing
  1965 ;; This function is called by:
  1966 ;;		_EUSART1_Initialize
  1967 ;; This function uses a non-reentrant model
  1968 ;;
  1969                           
  1970                           	psect	text15
  1971  00144E                     __ptext15:
  1972                           	opt stack 0
  1973  00144E                     _EUSART1_SetErrorHandler:
  1974                           	opt stack 28
  1975                           
  1976                           ;eusart1.c: 175: EUSART1_ErrorHandler = interruptHandler;
  1977                           
  1978                           ;incstack = 0
  1979  00144E  C020  F019         	movff	EUSART1_SetErrorHandler@interruptHandler,_EUSART1_ErrorHandler
  1980  001452  C021  F01A         	movff	EUSART1_SetErrorHandler@interruptHandler+1,_EUSART1_ErrorHandler+1
  1981  001456  0012               	return		;funcret
  1982  001458                     __end_of_EUSART1_SetErrorHandler:
  1983                           	opt stack 0
  1984                           tblptru	equ	0xFF8
  1985                           tblptrh	equ	0xFF7
  1986                           tblptrl	equ	0xFF6
  1987                           tablat	equ	0xFF5
  1988                           prodh	equ	0xFF4
  1989                           prodl	equ	0xFF3
  1990                           intcon	equ	0xFF2
  1991                           intcon2	equ	0xFF1
  1992                           postinc0	equ	0xFEE
  1993                           wreg	equ	0xFE8
  1994                           postdec1	equ	0xFE5
  1995                           fsr1h	equ	0xFE2
  1996                           fsr1l	equ	0xFE1
  1997                           indf2	equ	0xFDF
  1998                           fsr2h	equ	0xFDA
  1999                           fsr2l	equ	0xFD9
  2000                           status	equ	0xFD8
  2001                           
  2002 ;; *************** function _SSD1306_Init *****************
  2003 ;; Defined at:
  2004 ;;		line 11 in file "SSD1306_OLED.c"
  2005 ;; Parameters:    Size  Location     Type
  2006 ;;		None
  2007 ;; Auto vars:     Size  Location     Type
  2008 ;;		None
  2009 ;; Return value:  Size  Location     Type
  2010 ;;                  1    wreg      void 
  2011 ;; Registers used:
  2012 ;;		wreg, status,2, status,0, cstack
  2013 ;; Tracked objects:
  2014 ;;		On entry : 0/0
  2015 ;;		On exit  : 0/0
  2016 ;;		Unchanged: 0/0
  2017 ;; Data sizes:     COMRAM   BANK0   BANK1   BANK2   BANK3   BANK4   BANK5   BANK6   BANK7   BANK8   BANK9  BANK10  BANK1
      +1  BANK12  BANK13  BANK14
  2018 ;;      Params:         0       0       0       0       0       0       0       0       0       0       0       0       
      +0       0       0       0
  2019 ;;      Locals:         0       0       0       0       0       0       0       0       0       0       0       0       
      +0       0       0       0
  2020 ;;      Temps:          1       0       0       0       0       0       0       0       0       0       0       0       
      +0       0       0       0
  2021 ;;      Totals:         1       0       0       0       0       0       0       0       0       0       0       0       
      +0       0       0       0
  2022 ;;Total ram usage:        1 bytes
  2023 ;; Hardware stack levels used:    1
  2024 ;; Hardware stack levels required when called:    3
  2025 ;; This function calls:
  2026 ;;		_SSD1306_writeCMD
  2027 ;; This function is called by:
  2028 ;;		_main
  2029 ;; This function uses a non-reentrant model
  2030 ;;
  2031                           
  2032                           	psect	text16
  2033  000F42                     __ptext16:
  2034                           	opt stack 0
  2035  000F42                     _SSD1306_Init:
  2036                           	opt stack 27
  2037                           
  2038                           ;incstack = 0
  2039                           ;SSD1306_OLED.c: 13: do { LATEbits.LATE2 = 1; } while(0);
  2040  000F42  848D               	bsf	3981,2,c	;volatile
  2041                           
  2042                           ;SSD1306_OLED.c: 14: _delay((unsigned long)((1)*(16000000/4000.0)));
  2043  000F44  0E06               	movlw	6
  2044  000F46  6E23               	movwf	??_SSD1306_Init& (0+255),c
  2045  000F48  0E30               	movlw	48
  2046  000F4A                     u927:
  2047  000F4A  2EE8               	decfsz	wreg,f,c
  2048  000F4C  D7FE               	bra	u927
  2049  000F4E  2E23               	decfsz	??_SSD1306_Init& (0+255),f,c
  2050  000F50  D7FC               	bra	u927
  2051  000F52  D000               	nop2	
  2052                           
  2053                           ;SSD1306_OLED.c: 15: do { LATEbits.LATE2 = 0; } while(0);
  2054  000F54  948D               	bcf	3981,2,c	;volatile
  2055                           
  2056                           ;SSD1306_OLED.c: 16: _delay((unsigned long)((10)*(16000000/4000.0)));
  2057  000F56  0E34               	movlw	52
  2058  000F58  6E23               	movwf	??_SSD1306_Init& (0+255),c
  2059  000F5A  0EF2               	movlw	242
  2060  000F5C                     u937:
  2061  000F5C  2EE8               	decfsz	wreg,f,c
  2062  000F5E  D7FE               	bra	u937
  2063  000F60  2E23               	decfsz	??_SSD1306_Init& (0+255),f,c
  2064  000F62  D7FC               	bra	u937
  2065                           
  2066                           ;SSD1306_OLED.c: 17: do { LATEbits.LATE2 = 1; } while(0);
  2067  000F64  848D               	bsf	3981,2,c	;volatile
  2068                           
  2069                           ;SSD1306_OLED.c: 19: SSD1306_writeCMD(0xAE, 0xAE);
  2070  000F66  0EAE               	movlw	174
  2071  000F68  6E21               	movwf	SSD1306_writeCMD@dataByte,c
  2072  000F6A  0EAE               	movlw	174
  2073  000F6C  EC9B  F009         	call	_SSD1306_writeCMD
  2074                           
  2075                           ;SSD1306_OLED.c: 21: SSD1306_writeCMD(0xA8,63);
  2076  000F70  0E3F               	movlw	63
  2077  000F72  6E21               	movwf	SSD1306_writeCMD@dataByte,c
  2078  000F74  0EA8               	movlw	168
  2079  000F76  EC9B  F009         	call	_SSD1306_writeCMD
  2080                           
  2081                           ;SSD1306_OLED.c: 27: SSD1306_writeCMD(0xD3, 0x00);
  2082  000F7A  0E00               	movlw	0
  2083  000F7C  6E21               	movwf	SSD1306_writeCMD@dataByte,c
  2084  000F7E  0ED3               	movlw	211
  2085  000F80  EC9B  F009         	call	_SSD1306_writeCMD
  2086                           
  2087                           ;SSD1306_OLED.c: 28: SSD1306_writeCMD(0x20, 0x00);
  2088  000F84  0E00               	movlw	0
  2089  000F86  6E21               	movwf	SSD1306_writeCMD@dataByte,c
  2090  000F88  0E20               	movlw	32
  2091  000F8A  EC9B  F009         	call	_SSD1306_writeCMD
  2092                           
  2093                           ;SSD1306_OLED.c: 29: SSD1306_writeCMD(0x40, 0x40);
  2094  000F8E  0E40               	movlw	64
  2095  000F90  6E21               	movwf	SSD1306_writeCMD@dataByte,c
  2096  000F92  0E40               	movlw	64
  2097  000F94  EC9B  F009         	call	_SSD1306_writeCMD
  2098                           
  2099                           ;SSD1306_OLED.c: 30: SSD1306_writeCMD(0xA0, 0xA0);
  2100  000F98  0EA0               	movlw	160
  2101  000F9A  6E21               	movwf	SSD1306_writeCMD@dataByte,c
  2102  000F9C  0EA0               	movlw	160
  2103  000F9E  EC9B  F009         	call	_SSD1306_writeCMD
  2104                           
  2105                           ;SSD1306_OLED.c: 31: SSD1306_writeCMD(0xC0, 0xC0);
  2106  000FA2  0EC0               	movlw	192
  2107  000FA4  6E21               	movwf	SSD1306_writeCMD@dataByte,c
  2108  000FA6  0EC0               	movlw	192
  2109  000FA8  EC9B  F009         	call	_SSD1306_writeCMD
  2110                           
  2111                           ;SSD1306_OLED.c: 34: SSD1306_writeCMD(0xDA, 0x12);
  2112  000FAC  0E12               	movlw	18
  2113  000FAE  6E21               	movwf	SSD1306_writeCMD@dataByte,c
  2114  000FB0  0EDA               	movlw	218
  2115  000FB2  EC9B  F009         	call	_SSD1306_writeCMD
  2116                           
  2117                           ;SSD1306_OLED.c: 35: SSD1306_writeCMD(0x81, 0x7F);
  2118  000FB6  0E7F               	movlw	127
  2119  000FB8  6E21               	movwf	SSD1306_writeCMD@dataByte,c
  2120  000FBA  0E81               	movlw	129
  2121  000FBC  EC9B  F009         	call	_SSD1306_writeCMD
  2122                           
  2123                           ;SSD1306_OLED.c: 41: SSD1306_writeCMD(0xD9,0xD9);
  2124  000FC0  0ED9               	movlw	217
  2125  000FC2  6E21               	movwf	SSD1306_writeCMD@dataByte,c
  2126  000FC4  0ED9               	movlw	217
  2127  000FC6  EC9B  F009         	call	_SSD1306_writeCMD
  2128                           
  2129                           ;SSD1306_OLED.c: 42: SSD1306_writeCMD(0xDB, 0x40);
  2130  000FCA  0E40               	movlw	64
  2131  000FCC  6E21               	movwf	SSD1306_writeCMD@dataByte,c
  2132  000FCE  0EDB               	movlw	219
  2133  000FD0  EC9B  F009         	call	_SSD1306_writeCMD
  2134                           
  2135                           ;SSD1306_OLED.c: 43: SSD1306_writeCMD(0xA4, 0xA4);
  2136  000FD4  0EA4               	movlw	164
  2137  000FD6  6E21               	movwf	SSD1306_writeCMD@dataByte,c
  2138  000FD8  0EA4               	movlw	164
  2139  000FDA  EC9B  F009         	call	_SSD1306_writeCMD
  2140                           
  2141                           ;SSD1306_OLED.c: 44: SSD1306_writeCMD(0xA6, 0xA6);
  2142  000FDE  0EA6               	movlw	166
  2143  000FE0  6E21               	movwf	SSD1306_writeCMD@dataByte,c
  2144  000FE2  0EA6               	movlw	166
  2145  000FE4  EC9B  F009         	call	_SSD1306_writeCMD
  2146                           
  2147                           ;SSD1306_OLED.c: 45: SSD1306_writeCMD(0xD5, 0x80);
  2148  000FE8  0E80               	movlw	128
  2149  000FEA  6E21               	movwf	SSD1306_writeCMD@dataByte,c
  2150  000FEC  0ED5               	movlw	213
  2151  000FEE  EC9B  F009         	call	_SSD1306_writeCMD
  2152                           
  2153                           ;SSD1306_OLED.c: 46: SSD1306_writeCMD(0x8D, 0x14);
  2154  000FF2  0E14               	movlw	20
  2155  000FF4  6E21               	movwf	SSD1306_writeCMD@dataByte,c
  2156  000FF6  0E8D               	movlw	141
  2157  000FF8  EC9B  F009         	call	_SSD1306_writeCMD
  2158                           
  2159                           ;SSD1306_OLED.c: 47: SSD1306_writeCMD(0x2E,0x2E);
  2160  000FFC  0E2E               	movlw	46
  2161  000FFE  6E21               	movwf	SSD1306_writeCMD@dataByte,c
  2162  001000  0E2E               	movlw	46
  2163  001002  EC9B  F009         	call	_SSD1306_writeCMD
  2164                           
  2165                           ;SSD1306_OLED.c: 48: SSD1306_writeCMD(0xAF, 0xAF);
  2166  001006  0EAF               	movlw	175
  2167  001008  6E21               	movwf	SSD1306_writeCMD@dataByte,c
  2168  00100A  0EAF               	movlw	175
  2169  00100C  EC9B  F009         	call	_SSD1306_writeCMD
  2170  001010  0012               	return		;funcret
  2171  001012                     __end_of_SSD1306_Init:
  2172                           	opt stack 0
  2173                           tblptru	equ	0xFF8
  2174                           tblptrh	equ	0xFF7
  2175                           tblptrl	equ	0xFF6
  2176                           tablat	equ	0xFF5
  2177                           prodh	equ	0xFF4
  2178                           prodl	equ	0xFF3
  2179                           intcon	equ	0xFF2
  2180                           intcon2	equ	0xFF1
  2181                           postinc0	equ	0xFEE
  2182                           wreg	equ	0xFE8
  2183                           postdec1	equ	0xFE5
  2184                           fsr1h	equ	0xFE2
  2185                           fsr1l	equ	0xFE1
  2186                           indf2	equ	0xFDF
  2187                           fsr2h	equ	0xFDA
  2188                           fsr2l	equ	0xFD9
  2189                           status	equ	0xFD8
  2190                           
  2191 ;; *************** function _SSD1306_writeCMD *****************
  2192 ;; Defined at:
  2193 ;;		line 62 in file "SSD1306_OLED.c"
  2194 ;; Parameters:    Size  Location     Type
  2195 ;;  controlReg      1    wreg     unsigned char 
  2196 ;;  dataByte        1    1[COMRAM] unsigned char 
  2197 ;; Auto vars:     Size  Location     Type
  2198 ;;  controlReg      1    2[COMRAM] unsigned char 
  2199 ;; Return value:  Size  Location     Type
  2200 ;;                  1    wreg      void 
  2201 ;; Registers used:
  2202 ;;		wreg, status,2, status,0, cstack
  2203 ;; Tracked objects:
  2204 ;;		On entry : 0/0
  2205 ;;		On exit  : 0/0
  2206 ;;		Unchanged: 0/0
  2207 ;; Data sizes:     COMRAM   BANK0   BANK1   BANK2   BANK3   BANK4   BANK5   BANK6   BANK7   BANK8   BANK9  BANK10  BANK1
      +1  BANK12  BANK13  BANK14
  2208 ;;      Params:         1       0       0       0       0       0       0       0       0       0       0       0       
      +0       0       0       0
  2209 ;;      Locals:         1       0       0       0       0       0       0       0       0       0       0       0       
      +0       0       0       0
  2210 ;;      Temps:          0       0       0       0       0       0       0       0       0       0       0       0       
      +0       0       0       0
  2211 ;;      Totals:         2       0       0       0       0       0       0       0       0       0       0       0       
      +0       0       0       0
  2212 ;;Total ram usage:        2 bytes
  2213 ;; Hardware stack levels used:    1
  2214 ;; Hardware stack levels required when called:    2
  2215 ;; This function calls:
  2216 ;;		_I2C_Write
  2217 ;;		_I2C_start
  2218 ;;		_I2C_stop
  2219 ;; This function is called by:
  2220 ;;		_SSD1306_Init
  2221 ;; This function uses a non-reentrant model
  2222 ;;
  2223                           
  2224                           	psect	text17
  2225  001336                     __ptext17:
  2226                           	opt stack 0
  2227  001336                     _SSD1306_writeCMD:
  2228                           	opt stack 27
  2229                           
  2230                           ;incstack = 0
  2231                           ;SSD1306_writeCMD@controlReg stored from wreg
  2232  001336  6E22               	movwf	SSD1306_writeCMD@controlReg,c
  2233                           
  2234                           ;SSD1306_OLED.c: 63: I2C_start();
  2235  001338  EC2C  F00A         	call	_I2C_start	;wreg free
  2236                           
  2237                           ;SSD1306_OLED.c: 64: I2C_Write(0x7A);
  2238  00133C  0E7A               	movlw	122
  2239  00133E  ECE5  F009         	call	_I2C_Write
  2240                           
  2241                           ;SSD1306_OLED.c: 65: I2C_Write(controlReg);
  2242  001342  5022               	movf	SSD1306_writeCMD@controlReg,w,c
  2243  001344  ECE5  F009         	call	_I2C_Write
  2244                           
  2245                           ;SSD1306_OLED.c: 66: dataByte == 0xFF ? I2C_stop() :I2C_Write(dataByte);
  2246  001348  2821               	incf	SSD1306_writeCMD@dataByte,w,c
  2247  00134A  A4D8               	btfss	status,2,c
  2248  00134C  D003               	goto	l849
  2249  00134E  EC31  F00A         	call	_I2C_stop	;wreg free
  2250  001352  D003               	goto	l851
  2251  001354                     l849:
  2252  001354  5021               	movf	SSD1306_writeCMD@dataByte,w,c
  2253  001356  ECE5  F009         	call	_I2C_Write
  2254  00135A                     l851:
  2255                           
  2256                           ;SSD1306_OLED.c: 67: I2C_stop();
  2257  00135A  EC31  F00A         	call	_I2C_stop	;wreg free
  2258  00135E  0012               	return		;funcret
  2259  001360                     __end_of_SSD1306_writeCMD:
  2260                           	opt stack 0
  2261                           tblptru	equ	0xFF8
  2262                           tblptrh	equ	0xFF7
  2263                           tblptrl	equ	0xFF6
  2264                           tablat	equ	0xFF5
  2265                           prodh	equ	0xFF4
  2266                           prodl	equ	0xFF3
  2267                           intcon	equ	0xFF2
  2268                           intcon2	equ	0xFF1
  2269                           postinc0	equ	0xFEE
  2270                           wreg	equ	0xFE8
  2271                           postdec1	equ	0xFE5
  2272                           fsr1h	equ	0xFE2
  2273                           fsr1l	equ	0xFE1
  2274                           indf2	equ	0xFDF
  2275                           fsr2h	equ	0xFDA
  2276                           fsr2l	equ	0xFD9
  2277                           status	equ	0xFD8
  2278                           
  2279 ;; *************** function _I2C_buffClear *****************
  2280 ;; Defined at:
  2281 ;;		line 81 in file "I2C.c"
  2282 ;; Parameters:    Size  Location     Type
  2283 ;;		None
  2284 ;; Auto vars:     Size  Location     Type
  2285 ;;		None
  2286 ;; Return value:  Size  Location     Type
  2287 ;;                  1    wreg      void 
  2288 ;; Registers used:
  2289 ;;		wreg, cstack
  2290 ;; Tracked objects:
  2291 ;;		On entry : 0/0
  2292 ;;		On exit  : 0/0
  2293 ;;		Unchanged: 0/0
  2294 ;; Data sizes:     COMRAM   BANK0   BANK1   BANK2   BANK3   BANK4   BANK5   BANK6   BANK7   BANK8   BANK9  BANK10  BANK1
      +1  BANK12  BANK13  BANK14
  2295 ;;      Params:         0       0       0       0       0       0       0       0       0       0       0       0       
      +0       0       0       0
  2296 ;;      Locals:         0       0       0       0       0       0       0       0       0       0       0       0       
      +0       0       0       0
  2297 ;;      Temps:          0       0       0       0       0       0       0       0       0       0       0       0       
      +0       0       0       0
  2298 ;;      Totals:         0       0       0       0       0       0       0       0       0       0       0       0       
      +0       0       0       0
  2299 ;;Total ram usage:        0 bytes
  2300 ;; Hardware stack levels used:    1
  2301 ;; Hardware stack levels required when called:    2
  2302 ;; This function calls:
  2303 ;;		_I2C_Write
  2304 ;;		_I2C_start
  2305 ;;		_I2C_stop
  2306 ;; This function is called by:
  2307 ;;		_main
  2308 ;; This function uses a non-reentrant model
  2309 ;;
  2310                           
  2311                           	psect	text18
  2312  001412                     __ptext18:
  2313                           	opt stack 0
  2314  001412                     _I2C_buffClear:
  2315                           	opt stack 28
  2316                           
  2317                           ;I2C.c: 82: I2C_start();
  2318                           
  2319                           ;incstack = 0
  2320  001412  EC2C  F00A         	call	_I2C_start	;wreg free
  2321                           
  2322                           ;I2C.c: 83: I2C_Write(0x00);
  2323  001416  0E00               	movlw	0
  2324  001418  ECE5  F009         	call	_I2C_Write
  2325                           
  2326                           ;I2C.c: 84: I2C_stop();
  2327  00141C  EC31  F00A         	call	_I2C_stop	;wreg free
  2328  001420  0012               	return		;funcret
  2329  001422                     __end_of_I2C_buffClear:
  2330                           	opt stack 0
  2331                           tblptru	equ	0xFF8
  2332                           tblptrh	equ	0xFF7
  2333                           tblptrl	equ	0xFF6
  2334                           tablat	equ	0xFF5
  2335                           prodh	equ	0xFF4
  2336                           prodl	equ	0xFF3
  2337                           intcon	equ	0xFF2
  2338                           intcon2	equ	0xFF1
  2339                           postinc0	equ	0xFEE
  2340                           wreg	equ	0xFE8
  2341                           postdec1	equ	0xFE5
  2342                           fsr1h	equ	0xFE2
  2343                           fsr1l	equ	0xFE1
  2344                           indf2	equ	0xFDF
  2345                           fsr2h	equ	0xFDA
  2346                           fsr2l	equ	0xFD9
  2347                           status	equ	0xFD8
  2348                           
  2349 ;; *************** function _I2C_start *****************
  2350 ;; Defined at:
  2351 ;;		line 51 in file "I2C.c"
  2352 ;; Parameters:    Size  Location     Type
  2353 ;;		None
  2354 ;; Auto vars:     Size  Location     Type
  2355 ;;		None
  2356 ;; Return value:  Size  Location     Type
  2357 ;;                  1    wreg      void 
  2358 ;; Registers used:
  2359 ;;		None
  2360 ;; Tracked objects:
  2361 ;;		On entry : 0/0
  2362 ;;		On exit  : 0/0
  2363 ;;		Unchanged: 0/0
  2364 ;; Data sizes:     COMRAM   BANK0   BANK1   BANK2   BANK3   BANK4   BANK5   BANK6   BANK7   BANK8   BANK9  BANK10  BANK1
      +1  BANK12  BANK13  BANK14
  2365 ;;      Params:         0       0       0       0       0       0       0       0       0       0       0       0       
      +0       0       0       0
  2366 ;;      Locals:         0       0       0       0       0       0       0       0       0       0       0       0       
      +0       0       0       0
  2367 ;;      Temps:          0       0       0       0       0       0       0       0       0       0       0       0       
      +0       0       0       0
  2368 ;;      Totals:         0       0       0       0       0       0       0       0       0       0       0       0       
      +0       0       0       0
  2369 ;;Total ram usage:        0 bytes
  2370 ;; Hardware stack levels used:    1
  2371 ;; This function calls:
  2372 ;;		Nothing
  2373 ;; This function is called by:
  2374 ;;		_I2C_buffClear
  2375 ;;		_SSD1306_writeCMD
  2376 ;;		_displaySetCursor
  2377 ;;		_displayWrite
  2378 ;;		_I2C_BusSCan
  2379 ;;		_MCP23008_Init
  2380 ;;		_MCP23008_Write
  2381 ;;		_MCP23008_read
  2382 ;;		_MCP9801_Init
  2383 ;;		_MCP9801_TempRead
  2384 ;;		_EEPROM_24AA512_Write
  2385 ;;		_EEPROM_24AA512_Read
  2386 ;;		_EEPROM_24AA512_pageWrite
  2387 ;;		_EEPROM_24AA512_pageRead
  2388 ;;		_PCF8523_rtcRead
  2389 ;;		_PCF8523_write
  2390 ;;		_MCP794x_setTime
  2391 ;;		_MCP794x_setDate
  2392 ;;		_MCP794x_writeRtcc
  2393 ;;		_MCP794x_writeEEPROM
  2394 ;;		_MCP794x_readEEPROM
  2395 ;;		_MCP794x_getID
  2396 ;;		_MCP7941x_read
  2397 ;; This function uses a non-reentrant model
  2398 ;;
  2399                           
  2400                           	psect	text19
  2401  001458                     __ptext19:
  2402                           	opt stack 0
  2403  001458                     _I2C_start:
  2404                           	opt stack 28
  2405                           
  2406                           ;I2C.c: 52: SSP2CON2bits.SEN = 1;
  2407                           
  2408                           ;incstack = 0
  2409  001458  8071               	bsf	3953,0,c	;volatile
  2410  00145A  B071               	btfsc	3953,0,c	;volatile
  2411  00145C  D7FE               	goto	l483
  2412                           
  2413                           ;I2C.c: 54: PIR3bits.SSP2IF = 0;
  2414  00145E  9EA4               	bcf	4004,7,c	;volatile
  2415  001460  0012               	return		;funcret
  2416  001462                     __end_of_I2C_start:
  2417                           	opt stack 0
  2418                           tblptru	equ	0xFF8
  2419                           tblptrh	equ	0xFF7
  2420                           tblptrl	equ	0xFF6
  2421                           tablat	equ	0xFF5
  2422                           prodh	equ	0xFF4
  2423                           prodl	equ	0xFF3
  2424                           intcon	equ	0xFF2
  2425                           intcon2	equ	0xFF1
  2426                           postinc0	equ	0xFEE
  2427                           wreg	equ	0xFE8
  2428                           postdec1	equ	0xFE5
  2429                           fsr1h	equ	0xFE2
  2430                           fsr1l	equ	0xFE1
  2431                           indf2	equ	0xFDF
  2432                           fsr2h	equ	0xFDA
  2433                           fsr2l	equ	0xFD9
  2434                           status	equ	0xFD8
  2435                           
  2436 ;; *************** function _I2C_Write *****************
  2437 ;; Defined at:
  2438 ;;		line 31 in file "I2C.c"
  2439 ;; Parameters:    Size  Location     Type
  2440 ;;  data            1    wreg     unsigned char 
  2441 ;; Auto vars:     Size  Location     Type
  2442 ;;  data            1    0[COMRAM] unsigned char 
  2443 ;; Return value:  Size  Location     Type
  2444 ;;                  1    wreg      void 
  2445 ;; Registers used:
  2446 ;;		wreg, cstack
  2447 ;; Tracked objects:
  2448 ;;		On entry : 0/0
  2449 ;;		On exit  : 0/0
  2450 ;;		Unchanged: 0/0
  2451 ;; Data sizes:     COMRAM   BANK0   BANK1   BANK2   BANK3   BANK4   BANK5   BANK6   BANK7   BANK8   BANK9  BANK10  BANK1
      +1  BANK12  BANK13  BANK14
  2452 ;;      Params:         0       0       0       0       0       0       0       0       0       0       0       0       
      +0       0       0       0
  2453 ;;      Locals:         1       0       0       0       0       0       0       0       0       0       0       0       
      +0       0       0       0
  2454 ;;      Temps:          0       0       0       0       0       0       0       0       0       0       0       0       
      +0       0       0       0
  2455 ;;      Totals:         1       0       0       0       0       0       0       0       0       0       0       0       
      +0       0       0       0
  2456 ;;Total ram usage:        1 bytes
  2457 ;; Hardware stack levels used:    1
  2458 ;; Hardware stack levels required when called:    1
  2459 ;; This function calls:
  2460 ;;		_I2C_stop
  2461 ;; This function is called by:
  2462 ;;		_I2C_buffClear
  2463 ;;		_SSD1306_writeCMD
  2464 ;;		_displaySetCursor
  2465 ;;		_displayWrite
  2466 ;;		_I2C_BusSCan
  2467 ;;		_MCP23008_Init
  2468 ;;		_MCP23008_Write
  2469 ;;		_MCP23008_read
  2470 ;;		_MCP9801_Init
  2471 ;;		_MCP9801_TempRead
  2472 ;;		_EEPROM_24AA512_Write
  2473 ;;		_EEPROM_24AA512_Read
  2474 ;;		_EEPROM_24AA512_pageWrite
  2475 ;;		_EEPROM_24AA512_pageRead
  2476 ;;		_PCF8523_rtcRead
  2477 ;;		_PCF8523_write
  2478 ;;		_MCP794x_setTime
  2479 ;;		_MCP794x_setDate
  2480 ;;		_MCP794x_writeRtcc
  2481 ;;		_MCP794x_writeEEPROM
  2482 ;;		_MCP794x_readEEPROM
  2483 ;;		_MCP794x_getID
  2484 ;;		_MCP7941x_read
  2485 ;; This function uses a non-reentrant model
  2486 ;;
  2487                           
  2488                           	psect	text20
  2489  0013CA                     __ptext20:
  2490                           	opt stack 0
  2491  0013CA                     _I2C_Write:
  2492                           	opt stack 27
  2493                           
  2494                           ;incstack = 0
  2495                           ;I2C_Write@data stored from wreg
  2496  0013CA  6E20               	movwf	I2C_Write@data,c
  2497                           
  2498                           ;I2C.c: 32: SSP2BUF = data;
  2499  0013CC  C020  FF75         	movff	I2C_Write@data,3957	;volatile
  2500  0013D0  A073               	btfss	3955,0,c	;volatile
  2501  0013D2  D7FE               	goto	l464
  2502  0013D4                     u20:
  2503                           
  2504                           ;I2C.c: 34: while (!PIR3bits.SSP2IF);
  2505  0013D4  AEA4               	btfss	4004,7,c	;volatile
  2506  0013D6  D7FE               	goto	u20
  2507                           
  2508                           ;I2C.c: 35: PIR3bits.SSP2IF = 0;
  2509  0013D8  9EA4               	bcf	4004,7,c	;volatile
  2510                           
  2511                           ;I2C.c: 36: if (SSP2CON2bits.ACKSTAT) {
  2512  0013DA  AC71               	btfss	3953,6,c	;volatile
  2513  0013DC  0012               	return	
  2514                           
  2515                           ;I2C.c: 37: I2C_stop();
  2516  0013DE  EC31  F00A         	call	_I2C_stop	;wreg free
  2517                           
  2518                           ;I2C.c: 38: return;
  2519  0013E2  0012               	return	
  2520  0013E4                     __end_of_I2C_Write:
  2521                           	opt stack 0
  2522                           tblptru	equ	0xFF8
  2523                           tblptrh	equ	0xFF7
  2524                           tblptrl	equ	0xFF6
  2525                           tablat	equ	0xFF5
  2526                           prodh	equ	0xFF4
  2527                           prodl	equ	0xFF3
  2528                           intcon	equ	0xFF2
  2529                           intcon2	equ	0xFF1
  2530                           postinc0	equ	0xFEE
  2531                           wreg	equ	0xFE8
  2532                           postdec1	equ	0xFE5
  2533                           fsr1h	equ	0xFE2
  2534                           fsr1l	equ	0xFE1
  2535                           indf2	equ	0xFDF
  2536                           fsr2h	equ	0xFDA
  2537                           fsr2l	equ	0xFD9
  2538                           status	equ	0xFD8
  2539                           
  2540 ;; *************** function _I2C_stop *****************
  2541 ;; Defined at:
  2542 ;;		line 63 in file "I2C.c"
  2543 ;; Parameters:    Size  Location     Type
  2544 ;;		None
  2545 ;; Auto vars:     Size  Location     Type
  2546 ;;		None
  2547 ;; Return value:  Size  Location     Type
  2548 ;;                  1    wreg      void 
  2549 ;; Registers used:
  2550 ;;		None
  2551 ;; Tracked objects:
  2552 ;;		On entry : 0/0
  2553 ;;		On exit  : 0/0
  2554 ;;		Unchanged: 0/0
  2555 ;; Data sizes:     COMRAM   BANK0   BANK1   BANK2   BANK3   BANK4   BANK5   BANK6   BANK7   BANK8   BANK9  BANK10  BANK1
      +1  BANK12  BANK13  BANK14
  2556 ;;      Params:         0       0       0       0       0       0       0       0       0       0       0       0       
      +0       0       0       0
  2557 ;;      Locals:         0       0       0       0       0       0       0       0       0       0       0       0       
      +0       0       0       0
  2558 ;;      Temps:          0       0       0       0       0       0       0       0       0       0       0       0       
      +0       0       0       0
  2559 ;;      Totals:         0       0       0       0       0       0       0       0       0       0       0       0       
      +0       0       0       0
  2560 ;;Total ram usage:        0 bytes
  2561 ;; Hardware stack levels used:    1
  2562 ;; This function calls:
  2563 ;;		Nothing
  2564 ;; This function is called by:
  2565 ;;		_I2C_Write
  2566 ;;		_I2C_buffClear
  2567 ;;		_SSD1306_writeCMD
  2568 ;;		_displaySetCursor
  2569 ;;		_displayWrite
  2570 ;;		_I2C_BusSCan
  2571 ;;		_MCP23008_Init
  2572 ;;		_MCP23008_Write
  2573 ;;		_MCP23008_read
  2574 ;;		_MCP9801_Init
  2575 ;;		_MCP9801_TempRead
  2576 ;;		_EEPROM_24AA512_Write
  2577 ;;		_EEPROM_24AA512_Read
  2578 ;;		_EEPROM_24AA512_pageWrite
  2579 ;;		_EEPROM_24AA512_pageRead
  2580 ;;		_PCF8523_rtcRead
  2581 ;;		_PCF8523_write
  2582 ;;		_MCP794x_setTime
  2583 ;;		_MCP794x_setDate
  2584 ;;		_MCP794x_writeRtcc
  2585 ;;		_MCP794x_writeEEPROM
  2586 ;;		_MCP794x_readEEPROM
  2587 ;;		_MCP794x_getID
  2588 ;; This function uses a non-reentrant model
  2589 ;;
  2590                           
  2591                           	psect	text21
  2592  001462                     __ptext21:
  2593                           	opt stack 0
  2594  001462                     _I2C_stop:
  2595                           	opt stack 28
  2596                           
  2597                           ;I2C.c: 64: SSP2CON2bits.PEN = 1;
  2598                           
  2599                           ;incstack = 0
  2600  001462  8471               	bsf	3953,2,c	;volatile
  2601  001464  B471               	btfsc	3953,2,c	;volatile
  2602  001466  D7FE               	goto	l495
  2603                           
  2604                           ;I2C.c: 66: PIR3bits.SSP2IF = 0;
  2605  001468  9EA4               	bcf	4004,7,c	;volatile
  2606  00146A  0012               	return		;funcret
  2607  00146C                     __end_of_I2C_stop:
  2608                           	opt stack 0
  2609                           tblptru	equ	0xFF8
  2610                           tblptrh	equ	0xFF7
  2611                           tblptrl	equ	0xFF6
  2612                           tablat	equ	0xFF5
  2613                           prodh	equ	0xFF4
  2614                           prodl	equ	0xFF3
  2615                           intcon	equ	0xFF2
  2616                           intcon2	equ	0xFF1
  2617                           postinc0	equ	0xFEE
  2618                           wreg	equ	0xFE8
  2619                           postdec1	equ	0xFE5
  2620                           fsr1h	equ	0xFE2
  2621                           fsr1l	equ	0xFE1
  2622                           indf2	equ	0xFDF
  2623                           fsr2h	equ	0xFDA
  2624                           fsr2l	equ	0xFD9
  2625                           status	equ	0xFD8
  2626                           tblptru	equ	0xFF8
  2627                           tblptrh	equ	0xFF7
  2628                           tblptrl	equ	0xFF6
  2629                           tablat	equ	0xFF5
  2630                           prodh	equ	0xFF4
  2631                           prodl	equ	0xFF3
  2632                           intcon	equ	0xFF2
  2633                           intcon2	equ	0xFF1
  2634                           postinc0	equ	0xFEE
  2635                           wreg	equ	0xFE8
  2636                           postdec1	equ	0xFE5
  2637                           fsr1h	equ	0xFE2
  2638                           fsr1l	equ	0xFE1
  2639                           indf2	equ	0xFDF
  2640                           fsr2h	equ	0xFDA
  2641                           fsr2l	equ	0xFD9
  2642                           status	equ	0xFD8
  2643                           
  2644                           	psect	rparam
  2645  0000                     tblptru	equ	0xFF8
  2646                           tblptrh	equ	0xFF7
  2647                           tblptrl	equ	0xFF6
  2648                           tablat	equ	0xFF5
  2649                           prodh	equ	0xFF4
  2650                           prodl	equ	0xFF3
  2651                           intcon	equ	0xFF2
  2652                           intcon2	equ	0xFF1
  2653                           postinc0	equ	0xFEE
  2654                           wreg	equ	0xFE8
  2655                           postdec1	equ	0xFE5
  2656                           fsr1h	equ	0xFE2
  2657                           fsr1l	equ	0xFE1
  2658                           indf2	equ	0xFDF
  2659                           fsr2h	equ	0xFDA
  2660                           fsr2l	equ	0xFD9
  2661                           status	equ	0xFD8


Data Sizes:
    Strings     6
    Constant    57
    Data        53
    BSS         287
    Persistent  0
    Stack       0

Auto Spaces:
    Space          Size  Autos    Used
    COMRAM           95     23      75
    BANK0           160      0      32
    BANK1           256      0     256
    BANK2           256      0       0
    BANK3           256      0       0
    BANK4           256      0       0
    BANK5           256      0       0
    BANK6           256      0       0
    BANK7           256      0       0
    BANK8           256      0       0
    BANK9           256      0       0
    BANK10          256      0       0
    BANK11          256      0       0
    BANK12          256      0       0
    BANK13          256      0       0
    BANK14          176      0       0

Pointer List with Targets:

    memset@p1	PTR void  size(2) Largest target is 0
		 -> NULL(NULL[0]), 

    memset@p	PTR unsigned char  size(2) Largest target is 0
		 -> NULL(NULL[0]), 

    sp__utoa	PTR unsigned char  size(2) Largest target is 10
		 -> EUSART1_itoa@buf(COMRAM[10]), 

    sp__memset	PTR void  size(2) Largest target is 0
		 -> NULL(NULL[0]), 

    buffer	PTR unsigned int  size(2) Largest target is 0
		 -> NULL(NULL[0]), 

    EUSART1_SetErrorHandler@interruptHandler	PTR FTN()void  size(2) Largest target is 1
		 -> EUSART1_DefaultErrorHandler(), 

    EUSART1_ErrorHandler	PTR FTN()void  size(2) Largest target is 1
		 -> Absolute function(), EUSART1_DefaultErrorHandler(), 

    EUSART1_SetOverrunErrorHandler@interruptHandler	PTR FTN()void  size(2) Largest target is 1
		 -> EUSART1_DefaultOverrunErrorHandler(), 

    EUSART1_OverrunErrorHandler	PTR FTN()void  size(2) Largest target is 1
		 -> Absolute function(), EUSART1_DefaultOverrunErrorHandler(), 

    EUSART1_SetFramingErrorHandler@interruptHandler	PTR FTN()void  size(2) Largest target is 1
		 -> EUSART1_DefaultFramingErrorHandler(), 

    EUSART1_FramingErrorHandler	PTR FTN()void  size(2) Largest target is 1
		 -> Absolute function(), EUSART1_DefaultFramingErrorHandler(), 

    sp__itoa	PTR unsigned char  size(2) Largest target is 10
		 -> EUSART1_itoa@buf(COMRAM[10]), 


Critical Paths under _main in COMRAM

    _displaySetCursor->_memset
    _displayWrite->_I2C_Write
    _SYSTEM_Initialize->_I2C_Init
    _I2C_Init->___aldiv
    ___aldiv->___wmul
    _EUSART1_Initialize->_EUSART1_SetErrorHandler
    _EUSART1_Initialize->_EUSART1_SetFramingErrorHandler
    _EUSART1_Initialize->_EUSART1_SetOverrunErrorHandler
    _SSD1306_Init->_SSD1306_writeCMD
    _SSD1306_writeCMD->_I2C_Write
    _I2C_buffClear->_I2C_Write

Critical Paths under _main in BANK0

    None.

Critical Paths under _main in BANK1

    None.

Critical Paths under _main in BANK2

    None.

Critical Paths under _main in BANK3

    None.

Critical Paths under _main in BANK4

    None.

Critical Paths under _main in BANK5

    None.

Critical Paths under _main in BANK6

    None.

Critical Paths under _main in BANK7

    None.

Critical Paths under _main in BANK8

    None.

Critical Paths under _main in BANK9

    None.

Critical Paths under _main in BANK10

    None.

Critical Paths under _main in BANK11

    None.

Critical Paths under _main in BANK12

    None.

Critical Paths under _main in BANK13

    None.

Critical Paths under _main in BANK14

    None.

Call Graph Tables:

 ---------------------------------------------------------------------------------
 (Depth) Function   	        Calls       Base Space   Used Autos Params    Refs
 ---------------------------------------------------------------------------------
 (0) _main                                                 2     2      0    3511
                                             21 COMRAM     2     2      0
                      _I2C_buffClear
                       _SSD1306_Init
                  _SYSTEM_Initialize
                   _displaySetCursor
                     _interrupt_Init
 ---------------------------------------------------------------------------------
 (1) _interrupt_Init                                       0     0      0       0
 ---------------------------------------------------------------------------------
 (1) _displaySetCursor                                     2     2      0     792
                                              8 COMRAM     2     2      0
                          _I2C_Write
                          _I2C_start
                           _I2C_stop
                       _displayWrite
                             _memset
 ---------------------------------------------------------------------------------
 (2) _memset                                               8     2      6     324
                                              0 COMRAM     8     2      6
 ---------------------------------------------------------------------------------
 (2) _displayWrite                                         4     1      3     385
                                              1 COMRAM     4     1      3
                          _I2C_Write
                          _I2C_start
                           _I2C_stop
 ---------------------------------------------------------------------------------
 (1) _SYSTEM_Initialize                                    0     0      0    1331
                 _EUSART1_Initialize
                           _I2C_Init
              _OSCILLATOR_Initialize
             _PIN_MANAGER_Initialize
                    _SPI1_Initialize
 ---------------------------------------------------------------------------------
 (2) _SPI1_Initialize                                      0     0      0       0
 ---------------------------------------------------------------------------------
 (2) _PIN_MANAGER_Initialize                               0     0      0       0
 ---------------------------------------------------------------------------------
 (2) _OSCILLATOR_Initialize                                2     2      0       0
                                              0 COMRAM     2     2      0
 ---------------------------------------------------------------------------------
 (2) _I2C_Init                                             1     1      0    1037
                                             20 COMRAM     1     1      0
                            ___aldiv
                             ___wmul
 ---------------------------------------------------------------------------------
 (3) ___wmul                                               6     2      4     563
                                              0 COMRAM     6     2      4
 ---------------------------------------------------------------------------------
 (3) ___aldiv                                             14     6      8     452
                                              6 COMRAM    14     6      8
                             ___wmul (ARG)
 ---------------------------------------------------------------------------------
 (2) _EUSART1_Initialize                                   0     0      0     294
            _EUSART1_SetErrorHandler
     _EUSART1_SetFramingErrorHandler
     _EUSART1_SetOverrunErrorHandler
 ---------------------------------------------------------------------------------
 (3) _EUSART1_SetOverrunErrorHandler                       2     0      2      98
                                              0 COMRAM     2     0      2
 ---------------------------------------------------------------------------------
 (3) _EUSART1_SetFramingErrorHandler                       2     0      2      98
                                              0 COMRAM     2     0      2
 ---------------------------------------------------------------------------------
 (3) _EUSART1_SetErrorHandler                              2     0      2      98
                                              0 COMRAM     2     0      2
 ---------------------------------------------------------------------------------
 (1) _SSD1306_Init                                         1     1      0    1373
                                              3 COMRAM     1     1      0
                   _SSD1306_writeCMD
 ---------------------------------------------------------------------------------
 (2) _SSD1306_writeCMD                                     2     1      1    1373
                                              1 COMRAM     2     1      1
                          _I2C_Write
                          _I2C_start
                           _I2C_stop
 ---------------------------------------------------------------------------------
 (1) _I2C_buffClear                                        0     0      0      15
                          _I2C_Write
                          _I2C_start
                           _I2C_stop
 ---------------------------------------------------------------------------------
 (3) _I2C_start                                            0     0      0       0
 ---------------------------------------------------------------------------------
 (3) _I2C_Write                                            1     1      0      15
                                              0 COMRAM     1     1      0
                           _I2C_stop
 ---------------------------------------------------------------------------------
 (3) _I2C_stop                                             0     0      0       0
 ---------------------------------------------------------------------------------
 Estimated maximum stack depth 3
 ---------------------------------------------------------------------------------

 Call Graph Graphs:

 _main (ROOT)
   _I2C_buffClear
     _I2C_Write
       _I2C_stop
     _I2C_start
     _I2C_stop
   _SSD1306_Init
     _SSD1306_writeCMD
       _I2C_Write
         _I2C_stop
       _I2C_start
       _I2C_stop
   _SYSTEM_Initialize
     _EUSART1_Initialize
       _EUSART1_SetErrorHandler
       _EUSART1_SetFramingErrorHandler
       _EUSART1_SetOverrunErrorHandler
     _I2C_Init
       ___aldiv
         ___wmul (ARG)
       ___wmul
     _OSCILLATOR_Initialize
     _PIN_MANAGER_Initialize
     _SPI1_Initialize
   _displaySetCursor
     _I2C_Write
       _I2C_stop
     _I2C_start
     _I2C_stop
     _displayWrite
       _I2C_Write
         _I2C_stop
       _I2C_start
       _I2C_stop
     _memset
   _interrupt_Init

 Address spaces:
Name               Size   Autos  Total    Cost      Usage
BIGRAM             EAF      0       0      35        0.0%
BITBANK13          100      0       0      31        0.0%
BANK13             100      0       0      32        0.0%
BITBANK12          100      0       0      29        0.0%
BANK12             100      0       0      30        0.0%
BITBANK11          100      0       0      27        0.0%
BANK11             100      0       0      28        0.0%
BITBANK10          100      0       0      25        0.0%
BANK10             100      0       0      26        0.0%
BITBANK9           100      0       0      23        0.0%
BANK9              100      0       0      24        0.0%
BITBANK8           100      0       0      21        0.0%
BANK8              100      0       0      22        0.0%
BITBANK7           100      0       0      19        0.0%
BANK7              100      0       0      20        0.0%
BITBANK6           100      0       0      17        0.0%
BANK6              100      0       0      18        0.0%
BITBANK5           100      0       0      15        0.0%
BANK5              100      0       0      16        0.0%
BITBANK4           100      0       0      13        0.0%
BANK4              100      0       0      14        0.0%
BITBANK3           100      0       0      11        0.0%
BANK3              100      0       0      12        0.0%
BITBANK2           100      0       0       9        0.0%
BANK2              100      0       0      10        0.0%
BITBANK1           100      0       0       7        0.0%
BANK1              100      0     100       8      100.0%
BITBANK14           B0      0       0      33        0.0%
BANK14              B0      0       0      34        0.0%
BITBANK0            A0      0       0       4        0.0%
BANK0               A0      0      20       5       20.0%
BITCOMRAM           5F      0       0       0        0.0%
COMRAM              5F     17      4B       1       78.9%
BITSFR_2             0      0       0     200        0.0%
SFR_2                0      0       0     200        0.0%
BITSFR_1             0      0       0     200        0.0%
SFR_1                0      0       0     200        0.0%
BITSFR               0      0       0     200        0.0%
SFR                  0      0       0     200        0.0%
STACK                0      0       0       2        0.0%
NULL                 0      0       0       0        0.0%
ABS                  0      0     16B       6        0.0%
DATA                 0      0     16B       3        0.0%
CODE                 0      0       0       0        0.0%


Microchip Technology PIC18 Macro Assembler V1.45 build -152302408 
Symbol Table                                                                                   Tue Apr 14 00:15:36 2020

                            __size_of_I2C_Write 001A                                              u20 13D4  
                           ___wmul@multiplicand 0022                          __end_of_interrupt_Init 143A  
                                  __CFG_CP0$OFF 000000                              __size_of_I2C_start 000A  
                                   __CFG_OSC$HS 000000                                   ?_displayWrite 0021  
                                           l270 12A0                                             _ADC 0017  
                                           l464 13D0                                             l483 145A  
                                           l495 1464                                             l920 1046  
                                           l922 1074                                             l851 135A  
                                           l923 1068                                             l926 10A8  
                                           l927 10B6                                             l919 102E  
                                           l928 10CC                                             l849 1354  
                                           u820 1078                                             u907 128E  
                                           u917 1328                                             u927 0F4A  
                                           u880 115C                                             u937 0F5C  
                                           u897 1278                        __end_of_displaySetCursor 1162  
                                           wreg 000FE8                                      _TXSTA1bits 000FAD  
                                  __CFG_IESO$ON 000000                                            l1305 12FA  
                                          l1306 12EA                                            l2610 12EA  
                                          l2674 1136                                            STR_1 0F3E  
                                          STR_2 0F3C                                            STR_3 0F3A  
                                          _LATA 000F89                                            _LATB 000F8A  
                                          _LATC 000F8B                                            _LATD 000F8C  
                                          _LATE 000F8D                                   __CFG_FCMEN$ON 000000  
                                          _main 1264                                            _page 003F  
                              __end_of_I2C_Init 1220                                            fsr1h 000FE2  
                                          fsr2h 000FDA                                            indf2 000FDF  
                                          fsr1l 000FE1                                            fsr2l 000FD9  
                                          prodh 000FF4                                            prodl 000FF3  
                                          start 0000                                __end_of_I2C_stop 146C  
                                  ___param_bank 000000                                   __CFG_PLLDIV$1 000000  
                __size_of_OSCILLATOR_Initialize 002A                   __end_of_OSCILLATOR_Initialize 1336  
                               ?_interrupt_Init 0020                                  ??_displayWrite 0024  
                               __end_of___aldiv 10DE                                           ?_main 0020  
                                         _TRISA 000F92                                           _TRISB 000F93  
                                         _TRISC 000F94                                           _TRISD 000F95  
                                         _TRISE 000F96                                           _sData 0001  
                                         _errno 0013                                  __CFG_CLKOEC$ON 000000  
                             __end_of_I2C_Write 13E4                                           tablat 000FF5  
                                         status 000FD8                               __end_of_I2C_start 1462  
            _EUSART1_DefaultFramingErrorHandler 000000                        __size_of_SPI1_Initialize 000E  
                       __CFG_DSWDTOSC$INTOSCREF 000000                                 __initialization 1162  
                    __end_of_EUSART1_Initialize 12E0                                    __end_of_main 12A2  
                                        ??_main 0035                                   __activetblptr 000002  
                                        _ANCON0 000F48                                          _ANCON1 000F49  
                                        _ODCON1 000F42                                          _ODCON2 000F41  
                                        _ODCON3 000F40                                  __CFG_WDTEN$OFF 000000  
                                        _RCREG1 000FAF                                          _RCSTA1 000FAC  
                                        _OSCCON 000FD3                                          _SPBRG1 000FB0  
                                __CFG_WPCFG$OFF 000000                                          _TXREG1 000FAE  
                                        _TXSTA1 000FAD                                  __CFG_WPDIS$OFF 000000  
                                __CFG_XINST$OFF 000000                                   ?_SSD1306_Init 0020  
                                        _TxData 0100                                          _bfSize 000B  
                                     ??___aldiv 002E                                          ___wmul 1360  
                                __CFG_STVREN$ON 000000                          __size_of_I2C_buffClear 0010  
                                        _buffer 0015                                          _columm 0060  
                      ?_EUSART1_SetErrorHandler 0020                                          _memset 12E0  
                                        clear_0 11AA                                          clear_1 11BC  
              ??_EUSART1_SetOverrunErrorHandler 0022                 ?_EUSART1_SetOverrunErrorHandler 0020  
                                  __pdataCOMRAM 0037                                       ?_I2C_Init 0020  
                                 displayWrite@x 0024                                   displayWrite@y 0021  
                                  __mediumconst 0000                                          tblptrh 000FF7  
                                        tblptrl 000FF6                                          tblptru 000FF8  
                                     ?_I2C_stop 0020                                 __CFG_DSBOREN$ON 000000  
                              __end_ofexp@coeff 0F1F                               _SYSTEM_Initialize 13E4  
                              __end_oflog@coeff 0F3A                                      __accesstop 0060  
                       __end_of__initialization 11C2                            __end_of_displayWrite 13AA  
                            ?_SYSTEM_Initialize 0020                                   ___rparam_used 000001  
                                ??_SSD1306_Init 0023                                 __CFG_IOL1WAY$ON 000000  
                          __CFG_WPEND$PAGE_WPFP 000000                                  __pcstackCOMRAM 0020  
                             ?_SSD1306_writeCMD 0021                                    __pidataBANK0 13AA  
                           ??_SYSTEM_Initialize 0035                               ??_SPI1_Initialize 0020  
                            ??_SSD1306_writeCMD 0022                                 __CFG_DSWDTEN$ON 000000  
                               __CFG_DSWDTPS$G2 000000                                      ??_I2C_Init 0034  
                             ?_displaySetCursor 0020                                      ??_I2C_stop 0020  
                            ??_displaySetCursor 0028                       __end_of_SYSTEM_Initialize 13FC  
                                 _I2C_buffClear 1412                                      __pbssBANK1 0100  
               __end_of_EUSART1_SetErrorHandler 1458                               __CFG_PLLSEL$PLL4X 000000  
                              ??_interrupt_Init 0020                                         ?___wmul 0020  
                                       ?_memset 0020          __end_of_EUSART1_SetFramingErrorHandler 144E  
       __size_of_EUSART1_SetFramingErrorHandler 000A                  _EUSART1_SetFramingErrorHandler 1444  
                                       _REFOCON 000F3D                                         _OSCCON2 000F87  
                                       _OSCTUNE 000F9B                                         _SPBRGH1 000F7F  
                                       _SSP1ADD 000FC8                                         _SSP2ADD 000F74  
                                       _SSP1BUF 000FC9                                         _SSP2BUF 000F75  
                                ?_I2C_buffClear 0020                                       _I2C_Write 13CA  
                                       __Hparam 0000                                         __Lparam 0000  
                                     _I2C_start 1458                                         ___aldiv 1012  
                               __size_of___wmul 0026                                    __psmallconst 0F00  
                                       __pcinit 1162                                 __size_of_memset 002C  
                                       __ramtop 0F00                                         __ptext0 1264  
                                       __ptext1 1430                                         __ptext2 10DE  
                                       __ptext3 12E0                                         __ptext4 1386  
                                       __ptext5 13E4                                         __ptext6 1422  
                                       __ptext7 1220                                         __ptext8 130C  
                                       __ptext9 11CC                                       _MAX31_ADC 000F  
                         _OSCILLATOR_Initialize 130C                                ___aldiv@dividend 0026  
                            _EUSART1_Initialize 12A2                        ??_PIN_MANAGER_Initialize 0020  
                          __end_of_SSD1306_Init 1012                      __size_of_SYSTEM_Initialize 0018  
                         __size_of_displayWrite 0024                            end_of_initialization 11C2  
                           ?_EUSART1_Initialize 0020                                         memset@c 0022  
                                       memset@n 0024                                         memset@p 0026  
                                 __Lmediumconst 0000                     _EUSART1_OverrunErrorHandler 001B  
                                    ?_I2C_Write 0020                                      ?_I2C_start 0020  
                              ___aldiv@quotient 0030                                         postdec1 000FE5  
                                       postinc0 000FEE                            ??_EUSART1_Initialize 0022  
                                     _PORTBbits 000F81                                    _displayWrite 1386  
                               ??_I2C_buffClear 0021                                       _TRISCbits 000F94  
                                     _TRISDbits 000F95                                       _TRISEbits 000F96  
                             __size_of_I2C_Init 0054                __size_of_EUSART1_SetErrorHandler 000A  
                             __size_of_I2C_stop 000A                                 _SPI1_Initialize 1422  
                             __CFG_WPFP$PAGE_63 000000                             __CFG_MSSP7B_EN$MSK7 000000  
                                __end_of___wmul 1386                                   __pidataCOMRAM 13FC  
                        ?_OSCILLATOR_Initialize 0020                                  __end_of_memset 130C  
                           start_initialization 1162                       __size_of_SSD1306_writeCMD 002A  
               __size_of_PIN_MANAGER_Initialize 0044                       __size_of_displaySetCursor 0084  
                                   ??_I2C_Write 0020                                     ??_I2C_start 0020  
                                      ??___wmul 0024                               __CFG_ADCSEL$BIT10 000000  
                                   __pdataBANK0 0060                                        ??_memset 0026  
                         __size_of_SSD1306_Init 00D0                                 I2C_Init@F_clock 0034  
                                   __pbssCOMRAM 0001                         __end_of_SPI1_Initialize 1430  
              ??_EUSART1_SetFramingErrorHandler 0022                 ?_EUSART1_SetFramingErrorHandler 0020  
                           displayWrite@address 0022                          _PIN_MANAGER_Initialize 1220  
                                  _SSD1306_Init 0F42                                        ?___aldiv 0026  
                                   __smallconst 0F00                                        _BAUDCON1 000F7E  
            _EUSART1_DefaultOverrunErrorHandler 000000                                        _I2C_Init 11CC  
                          _EUSART1_ErrorHandler 0019                            __CFG_RTCOSC$T1OSCREF 000000  
                                      _I2C_stop 1462                         _EUSART1_SetErrorHandler 144E  
                               ___aldiv@divisor 002A                                 ___aldiv@counter 002E  
                                ___wmul@product 0024         EUSART1_SetErrorHandler@interruptHandler 0020  
                                      _LATCbits 000F8B                                        _LATEbits 000F8D  
                                      _PIE3bits 000FA3                                        _PIR1bits 000F9E  
                                      _PIR3bits 000FA4                                __CFG_WDTPS$32768 000000  
                                      _SSP1CON1 000FC6                                        _SSP1STAT 000FC7  
                             ___wmul@multiplier 0020                                __CFG_SOSCSEL$DIG 000000  
                       __size_of_interrupt_Init 000A                               __CFG_CFGPLLEN$OFF 000000  
                              _SSD1306_writeCMD 1336                                ?_SPI1_Initialize 0020  
                                   _INTCON2bits 000FF1                                       copy_data0 1176  
                                     copy_data1 1196                                _displaySetCursor 10DE  
                                      __Hrparam 0000                                        __Lrparam 0000  
                                 I2C_Write@data 0020                         ??_OSCILLATOR_Initialize 0020  
                              __size_of___aldiv 00CC                     __size_of_EUSART1_Initialize 003E  
                     ??_EUSART1_SetErrorHandler 0022                     _EUSART1_DefaultErrorHandler 000000  
                          PCF8523_setDate@F7823 0047                            displaySetCursor@size 0028  
                                      __ptext10 1360                                        __ptext11 1012  
                                      __ptext20 13CA                                        __ptext12 12A2  
                                      __ptext21 1462                                        __ptext13 143A  
                                      __ptext14 1444                                        __ptext15 144E  
                                      __ptext16 0F42                                        __ptext17 1336  
                                      __ptext18 1412                                        __ptext19 1458  
                         __end_of_I2C_buffClear 1422                                    _SSP1CON1bits 000FC6  
                                  _SSP2CON1bits 000F72                                    _SSP2CON2bits 000F71  
                                 __size_of_main 003E  EUSART1_SetOverrunErrorHandler@interruptHandler 0020  
                                  _SSP1STATbits 000FC7                     _EUSART1_FramingErrorHandler 001D  
                                  _SSP2STATbits 000F73                                        exp@coeff 0F01  
                                      log@coeff 0F1F                                      _INTCONbits 000FF2  
                                      memset@p1 0020                        SSD1306_writeCMD@dataByte 0021  
                       ?_PIN_MANAGER_Initialize 0020          __end_of_EUSART1_SetOverrunErrorHandler 1444  
       __size_of_EUSART1_SetOverrunErrorHandler 000A                  _EUSART1_SetOverrunErrorHandler 143A  
                    SSD1306_writeCMD@controlReg 0022                                      _RCSTA1bits 000FAC  
EUSART1_SetFramingErrorHandler@interruptHandler 0020                              _eusart1RxLastError 001F  
                                _interrupt_Init 1430                                    ___aldiv@sign 002F  
                __end_of_PIN_MANAGER_Initialize 1264                            PCF8523_setTime@F7816 0037  
                      __end_of_SSD1306_writeCMD 1360  
