

Microchip Technology PIC18 LITE Macro Assembler V1.45 build -152302408 
                                                                                               Wed Jul 10 16:35:15 2019

Microchip Technology Omniscient Code Generator v1.45 (Free mode) build 201711160504
     1                           	processor	18LF46J13
     2                           	fnconf	rparam,??,?,0
     3                           	opt	pw 120
     4                           	opt	lm
     5                           	psect	smallconst,global,reloc=2,class=SMALLCONST,delta=1,noexec
     6                           	psect	cinit,global,reloc=2,class=CODE,delta=1
     7                           	psect	bssCOMRAM,global,class=COMRAM,space=1,delta=1,noexec
     8                           	psect	bssBANK1,global,class=BANK1,space=1,delta=1,lowdata,noexec
     9                           	psect	cstackCOMRAM,global,class=COMRAM,space=1,delta=1,noexec
    10                           	psect	text0,global,reloc=2,class=CODE,delta=1
    11                           	psect	text1,global,reloc=2,class=CODE,delta=1
    12                           	psect	text2,global,reloc=2,class=CODE,delta=1
    13                           	psect	text3,global,reloc=2,class=CODE,delta=1
    14                           	psect	text4,global,reloc=2,class=CODE,delta=1
    15                           	psect	text5,global,reloc=2,class=CODE,delta=1
    16                           	psect	text6,global,reloc=2,class=CODE,delta=1
    17                           	psect	text7,global,reloc=2,class=CODE,delta=1
    18                           	psect	text8,global,reloc=2,class=CODE,delta=1
    19                           	psect	text9,global,reloc=2,class=CODE,delta=1
    20                           	psect	text10,global,reloc=2,class=CODE,delta=1
    21                           	psect	text11,global,reloc=2,class=CODE,delta=1
    22                           	psect	text12,global,reloc=2,class=CODE,delta=1
    23                           	psect	text13,global,reloc=2,class=CODE,delta=1
    24                           	psect	text14,global,reloc=2,class=CODE,delta=1
    25                           	psect	intsave_regs,global,class=BIGRAM,space=1,delta=1,noexec
    26                           	psect	rparam,global,class=COMRAM,space=1,delta=1,noexec
    27  0000                     
    28                           ; Version 1.45
    29                           ; Generated 16/11/2017 GMT
    30                           ; 
    31                           ; Copyright © 2017, Microchip Technology Inc. and its subsidiaries ("Microchip")
    32                           ; All rights reserved.
    33                           ; 
    34                           ; This software is developed by Microchip Technology Inc. and its subsidiaries ("Microch
      +                          ip").
    35                           ; 
    36                           ; Redistribution and use in source and binary forms, with or without modification, are
    37                           ; permitted provided that the following conditions are met:
    38                           ; 
    39                           ;     1. Redistributions of source code must retain the above copyright notice, this lis
      +                          t of
    40                           ;        conditions and the following disclaimer.
    41                           ; 
    42                           ;     2. Redistributions in binary form must reproduce the above copyright notice, this 
      +                          list
    43                           ;        of conditions and the following disclaimer in the documentation and/or other
    44                           ;        materials provided with the distribution.
    45                           ; 
    46                           ;     3. Microchip's name may not be used to endorse or promote products derived from th
      +                          is
    47                           ;        software without specific prior written permission.
    48                           ; 
    49                           ; THIS SOFTWARE IS PROVIDED BY MICROCHIP "AS IS" AND ANY EXPRESS OR IMPLIED WARRANTIES,
    50                           ; INCLUDING, BUT NOT LIMITED TO, THE IMPLIED WARRANTIES OF MERCHANTABILITY AND FITNESS F
      +                          OR
    51                           ; PURPOSE ARE DISCLAIMED.  IN NO EVENT SHALL MICROCHIP BE LIABLE FOR ANY DIRECT, INDIREC
      +                          T,
    52                           ; INCIDENTAL, SPECIAL, EXEMPLARY, OR CONSEQUENTIAL DAMAGES (INCLUDING BUT NOT LIMITED TO
    53                           ; PROCUREMENT OF SUBSTITUTE GOODS OR SERVICES; LOSS OF USE, DATA OR PROFITS; OR BUSINESS
    54                           ; INTERRUPTION) HOWSOEVER CAUSED AND ON ANY THEORY OF LIABILITY, WHETHER IN CONTRACT, ST
      +                          RICT
    55                           ; LIABILITY, OR TORT (INCLUDING NEGLIGENCE OR OTHERWISE) ARISING IN ANY WAY OUT OF THE U
      +                          SE OF
    56                           ; THIS SOFTWARE, EVEN IF ADVISED OF THE POSSIBILITY OF SUCH DAMAGE.
    57                           ; 
    58                           ; 
    59                           ; Code-generator required, PIC18LF46J13 Definitions
    60                           ; 
    61                           ; SFR Addresses
    62  0000                     
    63 ;; Function _EUSART1_DefaultFramingErrorHandler is unused but had its address taken
    64  0000                     
    65 ;; Function _EUSART1_DefaultOverrunErrorHandler is unused but had its address taken
    66  0000                     
    67 ;; Function _EUSART1_DefaultErrorHandler is unused but had its address taken
    68  0000                     
    69                           	psect	smallconst
    70  000F00                     __psmallconst:
    71                           	opt stack 0
    72  000F00  00                 	db	0
    73  000F01  00                 	db	0
    74  000F02  80                 	db	128
    75  000F03  3F                 	db	63
    76  000F04  72                 	db	114
    77  000F05  31                 	db	49
    78  000F06  3F                 	db	63
    79  000F07  FE                 	db	254
    80  000F08  75                 	db	117
    81  000F09  3E                 	db	62
    82  000F0A  58                 	db	88
    83  000F0B  63                 	db	99
    84  000F0C  3D                 	db	61
    85  000F0D  95                 	db	149
    86  000F0E  1D                 	db	29
    87  000F0F  3C                 	db	60
    88  000F10  C5                 	db	197
    89  000F11  AE                 	db	174
    90  000F12  3A                 	db	58
    91  000F13  79                 	db	121
    92  000F14  21                 	db	33
    93  000F15  39                 	db	57
    94  000F16  94                 	db	148
    95  000F17  80                 	db	128
    96  000F18  37                 	db	55
    97  000F19  93                 	db	147
    98  000F1A  A7                 	db	167
    99  000F1B  35                 	db	53
   100  000F1C  56                 	db	86
   101  000F1D  15                 	db	21
   102  000F1E  34                 	db	52
   103  000F1F                     __end_ofexp@coeff:
   104                           	opt stack 0
   105  000F1F  00                 	db	0
   106  000F20  00                 	db	0
   107  000F21  00                 	db	0
   108  000F22  00                 	db	0
   109  000F23  80                 	db	128
   110  000F24  3F                 	db	63
   111  000F25  F0                 	db	240
   112  000F26  FF                 	db	255
   113  000F27  BE                 	db	190
   114  000F28  E2                 	db	226
   115  000F29  A9                 	db	169
   116  000F2A  3E                 	db	62
   117  000F2B  83                 	db	131
   118  000F2C  76                 	db	118
   119  000F2D  BE                 	db	190
   120  000F2E  AE                 	db	174
   121  000F2F  2B                 	db	43
   122  000F30  3E                 	db	62
   123  000F31  3C                 	db	60
   124  000F32  C3                 	db	195
   125  000F33  BD                 	db	189
   126  000F34  D2                 	db	210
   127  000F35  13                 	db	19
   128  000F36  3D                 	db	61
   129  000F37  78                 	db	120
   130  000F38  D3                 	db	211
   131  000F39  BB                 	db	187
   132  000F3A                     __end_oflog@coeff:
   133                           	opt stack 0
   134  0000                     _ODCON3	set	3904
   135  0000                     _ODCON2	set	3905
   136  0000                     _ODCON1	set	3906
   137  0000                     _ANCON1	set	3913
   138  0000                     _ANCON0	set	3912
   139  0000                     _REFOCON	set	3901
   140  0000                     _SSP2STATbits	set	3955
   141  0000                     _SSP2BUF	set	3957
   142  0000                     _SSP2ADD	set	3956
   143  0000                     _SSP2CON2bits	set	3953
   144  0000                     _SSP2CON1bits	set	3954
   145  0000                     _TRISDbits	set	3989
   146  0000                     _PIR3bits	set	4004
   147  0000                     _PIE3bits	set	4003
   148  0000                     _PORTBbits	set	3969
   149  0000                     _LATCbits	set	3979
   150  0000                     _INTCONbits	set	4082
   151  0000                     _TRISEbits	set	3990
   152  0000                     _INTCON2bits	set	4081
   153  0000                     _TRISD	set	3989
   154  0000                     _TRISC	set	3988
   155  0000                     _TRISB	set	3987
   156  0000                     _TRISA	set	3986
   157  0000                     _TRISE	set	3990
   158  0000                     _LATC	set	3979
   159  0000                     _LATB	set	3978
   160  0000                     _LATA	set	3977
   161  0000                     _LATD	set	3980
   162  0000                     _LATE	set	3981
   163  0000                     _OSCCON2	set	3975
   164  0000                     _OSCTUNE	set	3995
   165  0000                     _OSCCON	set	4051
   166  0000                     _TXREG1	set	4014
   167  0000                     _RCREG1	set	4015
   168  0000                     _RCSTA1bits	set	4012
   169  0000                     _TXSTA1bits	set	4013
   170  0000                     _PIR1bits	set	3998
   171  0000                     _SPBRGH1	set	3967
   172  0000                     _SPBRG1	set	4016
   173  0000                     _TXSTA1	set	4013
   174  0000                     _RCSTA1	set	4012
   175  0000                     _BAUDCON1	set	3966
   176  0000                     _SSP1STATbits	set	4039
   177  0000                     _SSP1BUF	set	4041
   178  0000                     _SSP1CON1bits	set	4038
   179  0000                     _SSP1ADD	set	4040
   180  0000                     _SSP1CON1	set	4038
   181  0000                     _SSP1STAT	set	4039
   182                           
   183                           ; #config settings
   184  000F3A  00                 	db	0	; dummy byte at the end
   185  0000                     
   186                           	psect	cinit
   187  001126                     __pcinit:
   188                           	opt stack 0
   189  001126                     start_initialization:
   190                           	opt stack 0
   191  001126                     __initialization:
   192                           	opt stack 0
   193                           
   194                           ; Clear objects allocated to BANK1 (256 bytes)
   195  001126  EE01  F000         	lfsr	0,__pbssBANK1
   196  00112A  EE11 F000          	lfsr	1,256
   197  00112E                     clear_0:
   198  00112E  6AEE               	clrf	postinc0,c
   199  001130  50E5               	movf	postdec1,w,c
   200  001132  50E1               	movf	fsr1l,w,c
   201  001134  E1FC               	bnz	clear_0
   202  001136  50E2               	movf	fsr1h,w,c
   203  001138  E1FA               	bnz	clear_0
   204                           
   205                           ; Clear objects allocated to COMRAM (21 bytes)
   206  00113A  EE00  F001         	lfsr	0,__pbssCOMRAM
   207  00113E  0E15               	movlw	21
   208  001140                     clear_1:
   209  001140  6AEE               	clrf	postinc0,c
   210  001142  06E8               	decf	wreg,f,c
   211  001144  E1FD               	bnz	clear_1
   212  001146                     end_of_initialization:
   213                           	opt stack 0
   214  001146                     __end_of__initialization:
   215                           	opt stack 0
   216  001146  0E00               	movlw	low (__Lmediumconst shr (0+16))
   217  001148  6EF8               	movwf	tblptru,c
   218  00114A  0100               	movlb	0
   219  00114C  EF79  F008         	goto	_main	;jump to C main() function
   220                           tblptru	equ	0xFF8
   221                           postinc0	equ	0xFEE
   222                           wreg	equ	0xFE8
   223                           postdec1	equ	0xFE5
   224                           fsr1h	equ	0xFE2
   225                           fsr1l	equ	0xFE1
   226                           
   227                           	psect	bssCOMRAM
   228  000001                     __pbssCOMRAM:
   229                           	opt stack 0
   230  000001                     _sData:
   231                           	opt stack 0
   232  000001                     	ds	10
   233  00000B                     _errno:
   234                           	opt stack 0
   235  00000B                     	ds	2
   236  00000D                     _ADC:
   237                           	opt stack 0
   238  00000D                     	ds	2
   239  00000F                     _EUSART1_ErrorHandler:
   240                           	opt stack 0
   241  00000F                     	ds	2
   242  000011                     _EUSART1_OverrunErrorHandler:
   243                           	opt stack 0
   244  000011                     	ds	2
   245  000013                     _EUSART1_FramingErrorHandler:
   246                           	opt stack 0
   247  000013                     	ds	2
   248  000015                     _eusart1RxLastError:
   249                           	opt stack 0
   250  000015                     	ds	1
   251                           tblptru	equ	0xFF8
   252                           postinc0	equ	0xFEE
   253                           wreg	equ	0xFE8
   254                           postdec1	equ	0xFE5
   255                           fsr1h	equ	0xFE2
   256                           fsr1l	equ	0xFE1
   257                           
   258                           	psect	bssBANK1
   259  000100                     __pbssBANK1:
   260                           	opt stack 0
   261  000100                     _TxData:
   262                           	opt stack 0
   263  000100                     	ds	256
   264                           tblptru	equ	0xFF8
   265                           postinc0	equ	0xFEE
   266                           wreg	equ	0xFE8
   267                           postdec1	equ	0xFE5
   268                           fsr1h	equ	0xFE2
   269                           fsr1l	equ	0xFE1
   270                           
   271                           	psect	cstackCOMRAM
   272  000016                     __pcstackCOMRAM:
   273                           	opt stack 0
   274  000016                     ??_OSCILLATOR_Initialize:
   275  000016                     SPI1_Exchange8bit@data:
   276                           	opt stack 0
   277  000016                     EUSART1_SetFramingErrorHandler@interruptHandler:
   278                           	opt stack 0
   279  000016                     EUSART1_SetOverrunErrorHandler@interruptHandler:
   280                           	opt stack 0
   281  000016                     EUSART1_SetErrorHandler@interruptHandler:
   282                           	opt stack 0
   283                           
   284                           ; 2 bytes @ 0x0
   285  000016                     	ds	1
   286  000017                     ??_chipErase:
   287  000017                     ??_EEPROM_25LC512_Read:
   288  000017                     EEPROM_25LC512_Write@data:
   289                           	opt stack 0
   290                           
   291                           ; 1 bytes @ 0x1
   292  000017                     	ds	1
   293  000018                     ??_EEPROM_25LC512_Write:
   294  000018                     EEPROM_25LC512_Read@address:
   295                           	opt stack 0
   296                           
   297                           ; 1 bytes @ 0x2
   298  000018                     	ds	1
   299  000019                     EEPROM_25LC512_Write@address:
   300                           	opt stack 0
   301                           
   302                           ; 1 bytes @ 0x3
   303  000019                     	ds	1
   304  00001A                     EEPROM_25LC512_loop@d_Zise:
   305                           	opt stack 0
   306                           
   307                           ; 2 bytes @ 0x4
   308  00001A                     	ds	2
   309  00001C                     EEPROM_25LC512_loop@d_Zise_1013:
   310                           	opt stack 0
   311                           
   312                           ; 2 bytes @ 0x6
   313  00001C                     	ds	2
   314  00001E                     ??_main:
   315                           
   316                           ; 1 bytes @ 0x8
   317  00001E                     	ds	2
   318                           tblptru	equ	0xFF8
   319                           postinc0	equ	0xFEE
   320                           wreg	equ	0xFE8
   321                           postdec1	equ	0xFE5
   322                           fsr1h	equ	0xFE2
   323                           fsr1l	equ	0xFE1
   324                           
   325 ;;
   326 ;;Main: autosize = 0, tempsize = 2, incstack = 0, save=0
   327 ;;
   328 ;; *************** function _main *****************
   329 ;; Defined at:
   330 ;;		line 73 in file "main.c"
   331 ;; Parameters:    Size  Location     Type
   332 ;;		None
   333 ;; Auto vars:     Size  Location     Type
   334 ;;		None
   335 ;; Return value:  Size  Location     Type
   336 ;;                  1    wreg      void 
   337 ;; Registers used:
   338 ;;		wreg, status,2, status,0, cstack
   339 ;; Tracked objects:
   340 ;;		On entry : 0/0
   341 ;;		On exit  : 0/0
   342 ;;		Unchanged: 0/0
   343 ;; Data sizes:     COMRAM   BANK0   BANK1   BANK2   BANK3   BANK4   BANK5   BANK6   BANK7   BANK8   BANK9  BANK10  BANK1
      +1  BANK12  BANK13  BANK14
   344 ;;      Params:         0       0       0       0       0       0       0       0       0       0       0       0       
      +0       0       0       0
   345 ;;      Locals:         0       0       0       0       0       0       0       0       0       0       0       0       
      +0       0       0       0
   346 ;;      Temps:          2       0       0       0       0       0       0       0       0       0       0       0       
      +0       0       0       0
   347 ;;      Totals:         2       0       0       0       0       0       0       0       0       0       0       0       
      +0       0       0       0
   348 ;;Total ram usage:        2 bytes
   349 ;; Hardware stack levels required when called:    3
   350 ;; This function calls:
   351 ;;		_EEPROM_25LC512_Write
   352 ;;		_EEPROM_25LC512_loop
   353 ;;		_SYSTEM_Initialize
   354 ;;		_chipErase
   355 ;;		_interrupt_Init
   356 ;; This function is called by:
   357 ;;		Startup code after reset
   358 ;; This function uses a non-reentrant model
   359 ;;
   360                           
   361                           	psect	text0
   362  0010F2                     __ptext0:
   363                           	opt stack 0
   364  0010F2                     _main:
   365                           	opt stack 28
   366                           
   367                           ;main.c: 76: SYSTEM_Initialize();
   368                           
   369                           ;incstack = 0
   370  0010F2  ECBD  F008         	call	_SYSTEM_Initialize	;wreg free
   371                           
   372                           ;main.c: 77: interrupt_Init();
   373  0010F6  ECD5  F008         	call	_interrupt_Init	;wreg free
   374                           
   375                           ;main.c: 79: chipErase();
   376  0010FA  EC5E  F008         	call	_chipErase	;wreg free
   377  0010FE                     
   378                           ;main.c: 82: EEPROM_25LC512_loop();
   379  0010FE  EC9E  F007         	call	_EEPROM_25LC512_loop	;wreg free
   380                           
   381                           ;main.c: 83: EEPROM_25LC512_Write(0x12,0x54);
   382  001102  0E54               	movlw	84
   383  001104  6E17               	movwf	EEPROM_25LC512_Write@data,c
   384  001106  0E12               	movlw	18
   385  001108  ECDA  F007         	call	_EEPROM_25LC512_Write
   386                           
   387                           ;main.c: 84: _delay((unsigned long)((1000)*(16000000/4000.0)));
   388  00110C  0E15               	movlw	21
   389  00110E  6E1F               	movwf	(??_main+1)& (0+255),c
   390  001110  0E4B               	movlw	75
   391  001112  6E1E               	movwf	??_main& (0+255),c
   392  001114  0EBE               	movlw	190
   393  001116                     u637:
   394  001116  2EE8               	decfsz	wreg,f,c
   395  001118  D7FE               	bra	u637
   396  00111A  2E1E               	decfsz	??_main& (0+255),f,c
   397  00111C  D7FC               	bra	u637
   398  00111E  2E1F               	decfsz	(??_main+1)& (0+255),f,c
   399  001120  D7FA               	bra	u637
   400  001122  D000               	nop2	
   401  001124  D7EC               	goto	l231
   402  001126                     __end_of_main:
   403                           	opt stack 0
   404                           tblptru	equ	0xFF8
   405                           postinc0	equ	0xFEE
   406                           wreg	equ	0xFE8
   407                           postdec1	equ	0xFE5
   408                           fsr1h	equ	0xFE2
   409                           fsr1l	equ	0xFE1
   410                           
   411 ;; *************** function _interrupt_Init *****************
   412 ;; Defined at:
   413 ;;		line 15 in file "Interrupt.c"
   414 ;; Parameters:    Size  Location     Type
   415 ;;		None
   416 ;; Auto vars:     Size  Location     Type
   417 ;;		None
   418 ;; Return value:  Size  Location     Type
   419 ;;                  1    wreg      void 
   420 ;; Registers used:
   421 ;;		None
   422 ;; Tracked objects:
   423 ;;		On entry : 0/0
   424 ;;		On exit  : 0/0
   425 ;;		Unchanged: 0/0
   426 ;; Data sizes:     COMRAM   BANK0   BANK1   BANK2   BANK3   BANK4   BANK5   BANK6   BANK7   BANK8   BANK9  BANK10  BANK1
      +1  BANK12  BANK13  BANK14
   427 ;;      Params:         0       0       0       0       0       0       0       0       0       0       0       0       
      +0       0       0       0
   428 ;;      Locals:         0       0       0       0       0       0       0       0       0       0       0       0       
      +0       0       0       0
   429 ;;      Temps:          0       0       0       0       0       0       0       0       0       0       0       0       
      +0       0       0       0
   430 ;;      Totals:         0       0       0       0       0       0       0       0       0       0       0       0       
      +0       0       0       0
   431 ;;Total ram usage:        0 bytes
   432 ;; Hardware stack levels used:    1
   433 ;; This function calls:
   434 ;;		Nothing
   435 ;; This function is called by:
   436 ;;		_main
   437 ;; This function uses a non-reentrant model
   438 ;;
   439                           
   440                           	psect	text1
   441  0011AA                     __ptext1:
   442                           	opt stack 0
   443  0011AA                     _interrupt_Init:
   444                           	opt stack 30
   445                           
   446                           ;Interrupt.c: 16: INTCONbits.GIE = 1;
   447                           
   448                           ;incstack = 0
   449  0011AA  8EF2               	bsf	intcon,7,c	;volatile
   450                           
   451                           ;Interrupt.c: 17: INTCONbits.PEIE = 1;
   452  0011AC  8CF2               	bsf	intcon,6,c	;volatile
   453                           
   454                           ;Interrupt.c: 18: PIE3bits.SSP2IE = 1;
   455  0011AE  8EA3               	bsf	4003,7,c	;volatile
   456                           
   457                           ;Interrupt.c: 19: PIR3bits.SSP2IF = 0;
   458  0011B0  9EA4               	bcf	4004,7,c	;volatile
   459  0011B2  0012               	return		;funcret
   460  0011B4                     __end_of_interrupt_Init:
   461                           	opt stack 0
   462                           tblptru	equ	0xFF8
   463                           intcon	equ	0xFF2
   464                           postinc0	equ	0xFEE
   465                           wreg	equ	0xFE8
   466                           postdec1	equ	0xFE5
   467                           fsr1h	equ	0xFE2
   468                           fsr1l	equ	0xFE1
   469                           
   470 ;; *************** function _chipErase *****************
   471 ;; Defined at:
   472 ;;		line 62 in file "_25LC512_EEPROM.c"
   473 ;; Parameters:    Size  Location     Type
   474 ;;		None
   475 ;; Auto vars:     Size  Location     Type
   476 ;;		None
   477 ;; Return value:  Size  Location     Type
   478 ;;                  1    wreg      void 
   479 ;; Registers used:
   480 ;;		wreg, status,2, cstack
   481 ;; Tracked objects:
   482 ;;		On entry : 0/0
   483 ;;		On exit  : 0/0
   484 ;;		Unchanged: 0/0
   485 ;; Data sizes:     COMRAM   BANK0   BANK1   BANK2   BANK3   BANK4   BANK5   BANK6   BANK7   BANK8   BANK9  BANK10  BANK1
      +1  BANK12  BANK13  BANK14
   486 ;;      Params:         0       0       0       0       0       0       0       0       0       0       0       0       
      +0       0       0       0
   487 ;;      Locals:         0       0       0       0       0       0       0       0       0       0       0       0       
      +0       0       0       0
   488 ;;      Temps:          1       0       0       0       0       0       0       0       0       0       0       0       
      +0       0       0       0
   489 ;;      Totals:         1       0       0       0       0       0       0       0       0       0       0       0       
      +0       0       0       0
   490 ;;Total ram usage:        1 bytes
   491 ;; Hardware stack levels used:    1
   492 ;; Hardware stack levels required when called:    1
   493 ;; This function calls:
   494 ;;		_SPI1_Exchange8bit
   495 ;; This function is called by:
   496 ;;		_main
   497 ;; This function uses a non-reentrant model
   498 ;;
   499                           
   500                           	psect	text2
   501  0010BC                     __ptext2:
   502                           	opt stack 0
   503  0010BC                     _chipErase:
   504                           	opt stack 29
   505                           
   506                           ;incstack = 0
   507                           ;_25LC512_EEPROM.c: 63: do { LATCbits.LATC0 = 0; } while(0);
   508  0010BC  908B               	bcf	3979,0,c	;volatile
   509                           
   510                           ;_25LC512_EEPROM.c: 64: SPI1_Exchange8bit(0x06);
   511  0010BE  0E06               	movlw	6
   512  0010C0  ECC6  F008         	call	_SPI1_Exchange8bit
   513                           
   514                           ;_25LC512_EEPROM.c: 65: do { LATCbits.LATC0 = 1; } while(0);
   515  0010C4  808B               	bsf	3979,0,c	;volatile
   516                           
   517                           ;_25LC512_EEPROM.c: 66: _delay((unsigned long)((2)*(16000000/4000.0)));
   518  0010C6  0E0B               	movlw	11
   519  0010C8  6E17               	movwf	??_chipErase& (0+255),c
   520  0010CA  0E62               	movlw	98
   521  0010CC                     u647:
   522  0010CC  2EE8               	decfsz	wreg,f,c
   523  0010CE  D7FE               	bra	u647
   524  0010D0  2E17               	decfsz	??_chipErase& (0+255),f,c
   525  0010D2  D7FC               	bra	u647
   526  0010D4  D000               	nop2	
   527                           
   528                           ;_25LC512_EEPROM.c: 67: do { LATCbits.LATC0 = 0; } while(0);
   529  0010D6  908B               	bcf	3979,0,c	;volatile
   530                           
   531                           ;_25LC512_EEPROM.c: 68: _delay((unsigned long)((2)*(16000000/4000.0)));
   532  0010D8  0E0B               	movlw	11
   533  0010DA  6E17               	movwf	??_chipErase& (0+255),c
   534  0010DC  0E62               	movlw	98
   535  0010DE                     u657:
   536  0010DE  2EE8               	decfsz	wreg,f,c
   537  0010E0  D7FE               	bra	u657
   538  0010E2  2E17               	decfsz	??_chipErase& (0+255),f,c
   539  0010E4  D7FC               	bra	u657
   540  0010E6  D000               	nop2	
   541                           
   542                           ;_25LC512_EEPROM.c: 69: SPI1_Exchange8bit(0xC7);
   543  0010E8  0EC7               	movlw	199
   544  0010EA  ECC6  F008         	call	_SPI1_Exchange8bit
   545                           
   546                           ;_25LC512_EEPROM.c: 70: do { LATCbits.LATC0 = 1; } while(0);
   547  0010EE  808B               	bsf	3979,0,c	;volatile
   548  0010F0  0012               	return	
   549  0010F2                     __end_of_chipErase:
   550                           	opt stack 0
   551                           tblptru	equ	0xFF8
   552                           intcon	equ	0xFF2
   553                           postinc0	equ	0xFEE
   554                           wreg	equ	0xFE8
   555                           postdec1	equ	0xFE5
   556                           fsr1h	equ	0xFE2
   557                           fsr1l	equ	0xFE1
   558                           
   559 ;; *************** function _SYSTEM_Initialize *****************
   560 ;; Defined at:
   561 ;;		line 50 in file "mcc_generated_files/mcc.c"
   562 ;; Parameters:    Size  Location     Type
   563 ;;		None
   564 ;; Auto vars:     Size  Location     Type
   565 ;;		None
   566 ;; Return value:  Size  Location     Type
   567 ;;                  1    wreg      void 
   568 ;; Registers used:
   569 ;;		wreg, status,2, status,0, cstack
   570 ;; Tracked objects:
   571 ;;		On entry : 0/0
   572 ;;		On exit  : 0/0
   573 ;;		Unchanged: 0/0
   574 ;; Data sizes:     COMRAM   BANK0   BANK1   BANK2   BANK3   BANK4   BANK5   BANK6   BANK7   BANK8   BANK9  BANK10  BANK1
      +1  BANK12  BANK13  BANK14
   575 ;;      Params:         0       0       0       0       0       0       0       0       0       0       0       0       
      +0       0       0       0
   576 ;;      Locals:         0       0       0       0       0       0       0       0       0       0       0       0       
      +0       0       0       0
   577 ;;      Temps:          0       0       0       0       0       0       0       0       0       0       0       0       
      +0       0       0       0
   578 ;;      Totals:         0       0       0       0       0       0       0       0       0       0       0       0       
      +0       0       0       0
   579 ;;Total ram usage:        0 bytes
   580 ;; Hardware stack levels used:    1
   581 ;; Hardware stack levels required when called:    2
   582 ;; This function calls:
   583 ;;		_EUSART1_Initialize
   584 ;;		_OSCILLATOR_Initialize
   585 ;;		_PIN_MANAGER_Initialize
   586 ;;		_SPI1_Initialize
   587 ;; This function is called by:
   588 ;;		_main
   589 ;; This function uses a non-reentrant model
   590 ;;
   591                           
   592                           	psect	text3
   593  00117A                     __ptext3:
   594                           	opt stack 0
   595  00117A                     _SYSTEM_Initialize:
   596                           	opt stack 28
   597                           
   598                           ;mcc.c: 52: PIN_MANAGER_Initialize();
   599                           
   600                           ;incstack = 0
   601  00117A  ECFE  F007         	call	_PIN_MANAGER_Initialize	;wreg free
   602                           
   603                           ;mcc.c: 53: OSCILLATOR_Initialize();
   604  00117E  ECA8  F008         	call	_OSCILLATOR_Initialize	;wreg free
   605                           
   606                           ;mcc.c: 54: SPI1_Initialize();
   607  001182  ECCE  F008         	call	_SPI1_Initialize	;wreg free
   608                           
   609                           ;mcc.c: 55: EUSART1_Initialize();
   610  001186  EC20  F008         	call	_EUSART1_Initialize	;wreg free
   611  00118A  0012               	return		;funcret
   612  00118C                     __end_of_SYSTEM_Initialize:
   613                           	opt stack 0
   614                           tblptru	equ	0xFF8
   615                           intcon	equ	0xFF2
   616                           postinc0	equ	0xFEE
   617                           wreg	equ	0xFE8
   618                           postdec1	equ	0xFE5
   619                           fsr1h	equ	0xFE2
   620                           fsr1l	equ	0xFE1
   621                           
   622 ;; *************** function _SPI1_Initialize *****************
   623 ;; Defined at:
   624 ;;		line 65 in file "mcc_generated_files/spi1.c"
   625 ;; Parameters:    Size  Location     Type
   626 ;;		None
   627 ;; Auto vars:     Size  Location     Type
   628 ;;		None
   629 ;; Return value:  Size  Location     Type
   630 ;;                  1    wreg      void 
   631 ;; Registers used:
   632 ;;		wreg, status,2
   633 ;; Tracked objects:
   634 ;;		On entry : 0/0
   635 ;;		On exit  : 0/0
   636 ;;		Unchanged: 0/0
   637 ;; Data sizes:     COMRAM   BANK0   BANK1   BANK2   BANK3   BANK4   BANK5   BANK6   BANK7   BANK8   BANK9  BANK10  BANK1
      +1  BANK12  BANK13  BANK14
   638 ;;      Params:         0       0       0       0       0       0       0       0       0       0       0       0       
      +0       0       0       0
   639 ;;      Locals:         0       0       0       0       0       0       0       0       0       0       0       0       
      +0       0       0       0
   640 ;;      Temps:          0       0       0       0       0       0       0       0       0       0       0       0       
      +0       0       0       0
   641 ;;      Totals:         0       0       0       0       0       0       0       0       0       0       0       0       
      +0       0       0       0
   642 ;;Total ram usage:        0 bytes
   643 ;; Hardware stack levels used:    1
   644 ;; This function calls:
   645 ;;		Nothing
   646 ;; This function is called by:
   647 ;;		_SYSTEM_Initialize
   648 ;; This function uses a non-reentrant model
   649 ;;
   650                           
   651                           	psect	text4
   652  00119C                     __ptext4:
   653                           	opt stack 0
   654  00119C                     _SPI1_Initialize:
   655                           	opt stack 29
   656                           
   657                           ;spi1.c: 70: SSP1STAT = 0x80;
   658                           
   659                           ;incstack = 0
   660  00119C  0E80               	movlw	128
   661  00119E  6EC7               	movwf	4039,c	;volatile
   662                           
   663                           ;spi1.c: 73: SSP1CON1 = 0x20;
   664  0011A0  0E20               	movlw	32
   665  0011A2  6EC6               	movwf	4038,c	;volatile
   666                           
   667                           ;spi1.c: 76: SSP1ADD = 0x00;
   668  0011A4  0E00               	movlw	0
   669  0011A6  6EC8               	movwf	4040,c	;volatile
   670  0011A8  0012               	return		;funcret
   671  0011AA                     __end_of_SPI1_Initialize:
   672                           	opt stack 0
   673                           tblptru	equ	0xFF8
   674                           intcon	equ	0xFF2
   675                           postinc0	equ	0xFEE
   676                           wreg	equ	0xFE8
   677                           postdec1	equ	0xFE5
   678                           fsr1h	equ	0xFE2
   679                           fsr1l	equ	0xFE1
   680                           
   681 ;; *************** function _PIN_MANAGER_Initialize *****************
   682 ;; Defined at:
   683 ;;		line 52 in file "mcc_generated_files/pin_manager.c"
   684 ;; Parameters:    Size  Location     Type
   685 ;;		None
   686 ;; Auto vars:     Size  Location     Type
   687 ;;		None
   688 ;; Return value:  Size  Location     Type
   689 ;;                  1    wreg      void 
   690 ;; Registers used:
   691 ;;		wreg, status,2
   692 ;; Tracked objects:
   693 ;;		On entry : 0/0
   694 ;;		On exit  : 0/0
   695 ;;		Unchanged: 0/0
   696 ;; Data sizes:     COMRAM   BANK0   BANK1   BANK2   BANK3   BANK4   BANK5   BANK6   BANK7   BANK8   BANK9  BANK10  BANK1
      +1  BANK12  BANK13  BANK14
   697 ;;      Params:         0       0       0       0       0       0       0       0       0       0       0       0       
      +0       0       0       0
   698 ;;      Locals:         0       0       0       0       0       0       0       0       0       0       0       0       
      +0       0       0       0
   699 ;;      Temps:          0       0       0       0       0       0       0       0       0       0       0       0       
      +0       0       0       0
   700 ;;      Totals:         0       0       0       0       0       0       0       0       0       0       0       0       
      +0       0       0       0
   701 ;;Total ram usage:        0 bytes
   702 ;; Hardware stack levels used:    1
   703 ;; This function calls:
   704 ;;		Nothing
   705 ;; This function is called by:
   706 ;;		_SYSTEM_Initialize
   707 ;; This function uses a non-reentrant model
   708 ;;
   709                           
   710                           	psect	text5
   711  000FFC                     __ptext5:
   712                           	opt stack 0
   713  000FFC                     _PIN_MANAGER_Initialize:
   714                           	opt stack 29
   715                           
   716                           ;pin_manager.c: 57: LATE = 0x00;
   717                           
   718                           ;incstack = 0
   719  000FFC  0E00               	movlw	0
   720  000FFE  6E8D               	movwf	3981,c	;volatile
   721                           
   722                           ;pin_manager.c: 58: LATD = 0x00;
   723  001000  0E00               	movlw	0
   724  001002  6E8C               	movwf	3980,c	;volatile
   725                           
   726                           ;pin_manager.c: 59: LATA = 0x00;
   727  001004  0E00               	movlw	0
   728  001006  6E89               	movwf	3977,c	;volatile
   729                           
   730                           ;pin_manager.c: 60: LATB = 0x00;
   731  001008  0E00               	movlw	0
   732  00100A  6E8A               	movwf	3978,c	;volatile
   733                           
   734                           ;pin_manager.c: 61: LATC = 0x01;
   735  00100C  0E01               	movlw	1
   736  00100E  6E8B               	movwf	3979,c	;volatile
   737                           
   738                           ;pin_manager.c: 66: TRISE = 0xC7;
   739  001010  0EC7               	movlw	199
   740  001012  6E96               	movwf	3990,c	;volatile
   741                           
   742                           ;pin_manager.c: 67: TRISA = 0xEF;
   743  001014  0EEF               	movlw	239
   744  001016  6E92               	movwf	3986,c	;volatile
   745                           
   746                           ;pin_manager.c: 68: TRISB = 0xDF;
   747  001018  0EDF               	movlw	223
   748  00101A  6E93               	movwf	3987,c	;volatile
   749                           
   750                           ;pin_manager.c: 69: TRISC = 0x96;
   751  00101C  0E96               	movlw	150
   752  00101E  6E94               	movwf	3988,c	;volatile
   753                           
   754                           ;pin_manager.c: 70: TRISD = 0xFF;
   755  001020  6895               	setf	3989,c	;volatile
   756                           
   757                           ;pin_manager.c: 75: ANCON0 = 0x00;
   758  001022  0E00               	movlw	0
   759  001024  010F               	movlb	15	; () banked
   760  001026  6F48               	movwf	72,b	;volatile
   761                           
   762                           ;pin_manager.c: 76: ANCON1 = 0x10;
   763  001028  0E10               	movlw	16
   764  00102A  6F49               	movwf	73,b	;volatile
   765                           
   766                           ; BSR set to: 15
   767                           ;pin_manager.c: 81: INTCON2bits.nRBPU = 1;
   768  00102C  8EF1               	bsf	intcon2,7,c	;volatile
   769                           
   770                           ; BSR set to: 15
   771                           ;pin_manager.c: 82: TRISEbits.RDPU = 1;
   772  00102E  8E96               	bsf	3990,7,c	;volatile
   773                           
   774                           ; BSR set to: 15
   775                           ;pin_manager.c: 83: TRISEbits.REPU = 1;
   776  001030  8C96               	bsf	3990,6,c	;volatile
   777                           
   778                           ;pin_manager.c: 88: ODCON1 = 0x00;
   779  001032  0E00               	movlw	0
   780  001034  6F42               	movwf	66,b	;volatile
   781                           
   782                           ;pin_manager.c: 89: ODCON2 = 0x00;
   783  001036  0E00               	movlw	0
   784  001038  6F41               	movwf	65,b	;volatile
   785                           
   786                           ;pin_manager.c: 90: ODCON3 = 0x00;
   787  00103A  0E00               	movlw	0
   788  00103C  6F40               	movwf	64,b	;volatile
   789                           
   790                           ; BSR set to: 15
   791  00103E  0012               	return		;funcret
   792  001040                     __end_of_PIN_MANAGER_Initialize:
   793                           	opt stack 0
   794                           tblptru	equ	0xFF8
   795                           intcon	equ	0xFF2
   796                           intcon2	equ	0xFF1
   797                           postinc0	equ	0xFEE
   798                           wreg	equ	0xFE8
   799                           postdec1	equ	0xFE5
   800                           fsr1h	equ	0xFE2
   801                           fsr1l	equ	0xFE1
   802                           
   803 ;; *************** function _OSCILLATOR_Initialize *****************
   804 ;; Defined at:
   805 ;;		line 58 in file "mcc_generated_files/mcc.c"
   806 ;; Parameters:    Size  Location     Type
   807 ;;		None
   808 ;; Auto vars:     Size  Location     Type
   809 ;;		None
   810 ;; Return value:  Size  Location     Type
   811 ;;                  1    wreg      void 
   812 ;; Registers used:
   813 ;;		wreg, status,2
   814 ;; Tracked objects:
   815 ;;		On entry : 0/0
   816 ;;		On exit  : 0/0
   817 ;;		Unchanged: 0/0
   818 ;; Data sizes:     COMRAM   BANK0   BANK1   BANK2   BANK3   BANK4   BANK5   BANK6   BANK7   BANK8   BANK9  BANK10  BANK1
      +1  BANK12  BANK13  BANK14
   819 ;;      Params:         0       0       0       0       0       0       0       0       0       0       0       0       
      +0       0       0       0
   820 ;;      Locals:         0       0       0       0       0       0       0       0       0       0       0       0       
      +0       0       0       0
   821 ;;      Temps:          2       0       0       0       0       0       0       0       0       0       0       0       
      +0       0       0       0
   822 ;;      Totals:         2       0       0       0       0       0       0       0       0       0       0       0       
      +0       0       0       0
   823 ;;Total ram usage:        2 bytes
   824 ;; Hardware stack levels used:    1
   825 ;; This function calls:
   826 ;;		Nothing
   827 ;; This function is called by:
   828 ;;		_SYSTEM_Initialize
   829 ;; This function uses a non-reentrant model
   830 ;;
   831                           
   832                           	psect	text6
   833  001150                     __ptext6:
   834                           	opt stack 0
   835  001150                     _OSCILLATOR_Initialize:
   836                           	opt stack 29
   837                           
   838                           ;mcc.c: 61: OSCCON = 0x70;
   839                           
   840                           ; BSR set to: 15
   841                           ;incstack = 0
   842  001150  0E70               	movlw	112
   843  001152  6ED3               	movwf	4051,c	;volatile
   844                           
   845                           ;mcc.c: 63: OSCTUNE = 0x00;
   846  001154  0E00               	movlw	0
   847  001156  6E9B               	movwf	3995,c	;volatile
   848                           
   849                           ;mcc.c: 65: REFOCON = 0x00;
   850  001158  0E00               	movlw	0
   851  00115A  010F               	movlb	15	; () banked
   852  00115C  6F3D               	movwf	61,b	;volatile
   853                           
   854                           ;mcc.c: 67: OSCCON2 = 0x14;
   855  00115E  0E14               	movlw	20
   856  001160  6E87               	movwf	3975,c	;volatile
   857                           
   858                           ; BSR set to: 15
   859                           ;mcc.c: 68: _delay((unsigned long)((500)*(16000000/4000.0)));
   860  001162  0E0B               	movlw	11
   861  001164  6E17               	movwf	(??_OSCILLATOR_Initialize+1)& (0+255),c
   862  001166  0E26               	movlw	38
   863  001168  6E16               	movwf	??_OSCILLATOR_Initialize& (0+255),c
   864  00116A  0E5E               	movlw	94
   865  00116C                     u667:
   866  00116C  2EE8               	decfsz	wreg,f,c
   867  00116E  D7FE               	bra	u667
   868  001170  2E16               	decfsz	??_OSCILLATOR_Initialize& (0+255),f,c
   869  001172  D7FC               	bra	u667
   870  001174  2E17               	decfsz	(??_OSCILLATOR_Initialize+1)& (0+255),f,c
   871  001176  D7FA               	bra	u667
   872  001178  0012               	return		;funcret
   873  00117A                     __end_of_OSCILLATOR_Initialize:
   874                           	opt stack 0
   875                           tblptru	equ	0xFF8
   876                           intcon	equ	0xFF2
   877                           intcon2	equ	0xFF1
   878                           postinc0	equ	0xFEE
   879                           wreg	equ	0xFE8
   880                           postdec1	equ	0xFE5
   881                           fsr1h	equ	0xFE2
   882                           fsr1l	equ	0xFE1
   883                           
   884 ;; *************** function _EUSART1_Initialize *****************
   885 ;; Defined at:
   886 ;;		line 69 in file "mcc_generated_files/eusart1.c"
   887 ;; Parameters:    Size  Location     Type
   888 ;;		None
   889 ;; Auto vars:     Size  Location     Type
   890 ;;		None
   891 ;; Return value:  Size  Location     Type
   892 ;;                  1    wreg      void 
   893 ;; Registers used:
   894 ;;		wreg, status,2, status,0, cstack
   895 ;; Tracked objects:
   896 ;;		On entry : 0/0
   897 ;;		On exit  : 0/0
   898 ;;		Unchanged: 0/0
   899 ;; Data sizes:     COMRAM   BANK0   BANK1   BANK2   BANK3   BANK4   BANK5   BANK6   BANK7   BANK8   BANK9  BANK10  BANK1
      +1  BANK12  BANK13  BANK14
   900 ;;      Params:         0       0       0       0       0       0       0       0       0       0       0       0       
      +0       0       0       0
   901 ;;      Locals:         0       0       0       0       0       0       0       0       0       0       0       0       
      +0       0       0       0
   902 ;;      Temps:          0       0       0       0       0       0       0       0       0       0       0       0       
      +0       0       0       0
   903 ;;      Totals:         0       0       0       0       0       0       0       0       0       0       0       0       
      +0       0       0       0
   904 ;;Total ram usage:        0 bytes
   905 ;; Hardware stack levels used:    1
   906 ;; Hardware stack levels required when called:    1
   907 ;; This function calls:
   908 ;;		_EUSART1_SetErrorHandler
   909 ;;		_EUSART1_SetFramingErrorHandler
   910 ;;		_EUSART1_SetOverrunErrorHandler
   911 ;; This function is called by:
   912 ;;		_SYSTEM_Initialize
   913 ;; This function uses a non-reentrant model
   914 ;;
   915                           
   916                           	psect	text7
   917  001040                     __ptext7:
   918                           	opt stack 0
   919  001040                     _EUSART1_Initialize:
   920                           	opt stack 28
   921                           
   922                           ;eusart1.c: 74: BAUDCON1 = 0x18;
   923                           
   924                           ;incstack = 0
   925  001040  0E18               	movlw	24
   926  001042  6E7E               	movwf	3966,c	;volatile
   927                           
   928                           ;eusart1.c: 77: RCSTA1 = 0x98;
   929  001044  0E98               	movlw	152
   930  001046  6EAC               	movwf	4012,c	;volatile
   931                           
   932                           ;eusart1.c: 80: TXSTA1 = 0x24;
   933  001048  0E24               	movlw	36
   934  00104A  6EAD               	movwf	4013,c	;volatile
   935                           
   936                           ;eusart1.c: 83: SPBRG1 = 0xCF;
   937  00104C  0ECF               	movlw	207
   938  00104E  6EB0               	movwf	4016,c	;volatile
   939                           
   940                           ;eusart1.c: 86: SPBRGH1 = 0x00;
   941  001050  0E00               	movlw	0
   942  001052  6E7F               	movwf	3967,c	;volatile
   943                           
   944                           ;eusart1.c: 89: EUSART1_SetFramingErrorHandler(EUSART1_DefaultFramingErrorHandler);
   945  001054  0E00               	movlw	0
   946  001056  6E16               	movwf	EUSART1_SetFramingErrorHandler@interruptHandler,c
   947  001058  0E00               	movlw	0
   948  00105A  6E17               	movwf	EUSART1_SetFramingErrorHandler@interruptHandler+1,c
   949  00105C  ECDF  F008         	call	_EUSART1_SetFramingErrorHandler	;wreg free
   950                           
   951                           ;eusart1.c: 90: EUSART1_SetOverrunErrorHandler(EUSART1_DefaultOverrunErrorHandler);
   952  001060  0E00               	movlw	0
   953  001062  6E16               	movwf	EUSART1_SetOverrunErrorHandler@interruptHandler,c
   954  001064  0E00               	movlw	0
   955  001066  6E17               	movwf	EUSART1_SetOverrunErrorHandler@interruptHandler+1,c
   956  001068  ECDA  F008         	call	_EUSART1_SetOverrunErrorHandler	;wreg free
   957                           
   958                           ;eusart1.c: 91: EUSART1_SetErrorHandler(EUSART1_DefaultErrorHandler);
   959  00106C  0E00               	movlw	0
   960  00106E  6E16               	movwf	EUSART1_SetErrorHandler@interruptHandler,c
   961  001070  0E00               	movlw	0
   962  001072  6E17               	movwf	EUSART1_SetErrorHandler@interruptHandler+1,c
   963  001074  ECE4  F008         	call	_EUSART1_SetErrorHandler	;wreg free
   964                           
   965                           ;eusart1.c: 93: eusart1RxLastError.status = 0;
   966  001078  0E00               	movlw	0
   967  00107A  6E15               	movwf	_eusart1RxLastError,c	;volatile
   968  00107C  0012               	return		;funcret
   969  00107E                     __end_of_EUSART1_Initialize:
   970                           	opt stack 0
   971                           tblptru	equ	0xFF8
   972                           intcon	equ	0xFF2
   973                           intcon2	equ	0xFF1
   974                           postinc0	equ	0xFEE
   975                           wreg	equ	0xFE8
   976                           postdec1	equ	0xFE5
   977                           fsr1h	equ	0xFE2
   978                           fsr1l	equ	0xFE1
   979                           
   980 ;; *************** function _EUSART1_SetOverrunErrorHandler *****************
   981 ;; Defined at:
   982 ;;		line 173 in file "mcc_generated_files/eusart1.c"
   983 ;; Parameters:    Size  Location     Type
   984 ;;  interruptHan    2    0[COMRAM] PTR FTN()void 
   985 ;;		 -> EUSART1_DefaultOverrunErrorHandler(1), 
   986 ;; Auto vars:     Size  Location     Type
   987 ;;		None
   988 ;; Return value:  Size  Location     Type
   989 ;;                  1    wreg      void 
   990 ;; Registers used:
   991 ;;		wreg, status,2, status,0
   992 ;; Tracked objects:
   993 ;;		On entry : 0/0
   994 ;;		On exit  : 0/0
   995 ;;		Unchanged: 0/0
   996 ;; Data sizes:     COMRAM   BANK0   BANK1   BANK2   BANK3   BANK4   BANK5   BANK6   BANK7   BANK8   BANK9  BANK10  BANK1
      +1  BANK12  BANK13  BANK14
   997 ;;      Params:         2       0       0       0       0       0       0       0       0       0       0       0       
      +0       0       0       0
   998 ;;      Locals:         0       0       0       0       0       0       0       0       0       0       0       0       
      +0       0       0       0
   999 ;;      Temps:          0       0       0       0       0       0       0       0       0       0       0       0       
      +0       0       0       0
  1000 ;;      Totals:         2       0       0       0       0       0       0       0       0       0       0       0       
      +0       0       0       0
  1001 ;;Total ram usage:        2 bytes
  1002 ;; Hardware stack levels used:    1
  1003 ;; This function calls:
  1004 ;;		Nothing
  1005 ;; This function is called by:
  1006 ;;		_EUSART1_Initialize
  1007 ;; This function uses a non-reentrant model
  1008 ;;
  1009                           
  1010                           	psect	text8
  1011  0011B4                     __ptext8:
  1012                           	opt stack 0
  1013  0011B4                     _EUSART1_SetOverrunErrorHandler:
  1014                           	opt stack 28
  1015                           
  1016                           ;eusart1.c: 174: EUSART1_OverrunErrorHandler = interruptHandler;
  1017                           
  1018                           ;incstack = 0
  1019  0011B4  C016  F011         	movff	EUSART1_SetOverrunErrorHandler@interruptHandler,_EUSART1_OverrunErrorHandler
  1020  0011B8  C017  F012         	movff	EUSART1_SetOverrunErrorHandler@interruptHandler+1,_EUSART1_OverrunErrorHandler+1
  1021  0011BC  0012               	return		;funcret
  1022  0011BE                     __end_of_EUSART1_SetOverrunErrorHandler:
  1023                           	opt stack 0
  1024                           tblptru	equ	0xFF8
  1025                           intcon	equ	0xFF2
  1026                           intcon2	equ	0xFF1
  1027                           postinc0	equ	0xFEE
  1028                           wreg	equ	0xFE8
  1029                           postdec1	equ	0xFE5
  1030                           fsr1h	equ	0xFE2
  1031                           fsr1l	equ	0xFE1
  1032                           
  1033 ;; *************** function _EUSART1_SetFramingErrorHandler *****************
  1034 ;; Defined at:
  1035 ;;		line 169 in file "mcc_generated_files/eusart1.c"
  1036 ;; Parameters:    Size  Location     Type
  1037 ;;  interruptHan    2    0[COMRAM] PTR FTN()void 
  1038 ;;		 -> EUSART1_DefaultFramingErrorHandler(1), 
  1039 ;; Auto vars:     Size  Location     Type
  1040 ;;		None
  1041 ;; Return value:  Size  Location     Type
  1042 ;;                  1    wreg      void 
  1043 ;; Registers used:
  1044 ;;		wreg, status,2, status,0
  1045 ;; Tracked objects:
  1046 ;;		On entry : 0/0
  1047 ;;		On exit  : 0/0
  1048 ;;		Unchanged: 0/0
  1049 ;; Data sizes:     COMRAM   BANK0   BANK1   BANK2   BANK3   BANK4   BANK5   BANK6   BANK7   BANK8   BANK9  BANK10  BANK1
      +1  BANK12  BANK13  BANK14
  1050 ;;      Params:         2       0       0       0       0       0       0       0       0       0       0       0       
      +0       0       0       0
  1051 ;;      Locals:         0       0       0       0       0       0       0       0       0       0       0       0       
      +0       0       0       0
  1052 ;;      Temps:          0       0       0       0       0       0       0       0       0       0       0       0       
      +0       0       0       0
  1053 ;;      Totals:         2       0       0       0       0       0       0       0       0       0       0       0       
      +0       0       0       0
  1054 ;;Total ram usage:        2 bytes
  1055 ;; Hardware stack levels used:    1
  1056 ;; This function calls:
  1057 ;;		Nothing
  1058 ;; This function is called by:
  1059 ;;		_EUSART1_Initialize
  1060 ;; This function uses a non-reentrant model
  1061 ;;
  1062                           
  1063                           	psect	text9
  1064  0011BE                     __ptext9:
  1065                           	opt stack 0
  1066  0011BE                     _EUSART1_SetFramingErrorHandler:
  1067                           	opt stack 28
  1068                           
  1069                           ;eusart1.c: 170: EUSART1_FramingErrorHandler = interruptHandler;
  1070                           
  1071                           ;incstack = 0
  1072  0011BE  C016  F013         	movff	EUSART1_SetFramingErrorHandler@interruptHandler,_EUSART1_FramingErrorHandler
  1073  0011C2  C017  F014         	movff	EUSART1_SetFramingErrorHandler@interruptHandler+1,_EUSART1_FramingErrorHandler+1
  1074  0011C6  0012               	return		;funcret
  1075  0011C8                     __end_of_EUSART1_SetFramingErrorHandler:
  1076                           	opt stack 0
  1077                           tblptru	equ	0xFF8
  1078                           intcon	equ	0xFF2
  1079                           intcon2	equ	0xFF1
  1080                           postinc0	equ	0xFEE
  1081                           wreg	equ	0xFE8
  1082                           postdec1	equ	0xFE5
  1083                           fsr1h	equ	0xFE2
  1084                           fsr1l	equ	0xFE1
  1085                           
  1086 ;; *************** function _EUSART1_SetErrorHandler *****************
  1087 ;; Defined at:
  1088 ;;		line 177 in file "mcc_generated_files/eusart1.c"
  1089 ;; Parameters:    Size  Location     Type
  1090 ;;  interruptHan    2    0[COMRAM] PTR FTN()void 
  1091 ;;		 -> EUSART1_DefaultErrorHandler(1), 
  1092 ;; Auto vars:     Size  Location     Type
  1093 ;;		None
  1094 ;; Return value:  Size  Location     Type
  1095 ;;                  1    wreg      void 
  1096 ;; Registers used:
  1097 ;;		wreg, status,2, status,0
  1098 ;; Tracked objects:
  1099 ;;		On entry : 0/0
  1100 ;;		On exit  : 0/0
  1101 ;;		Unchanged: 0/0
  1102 ;; Data sizes:     COMRAM   BANK0   BANK1   BANK2   BANK3   BANK4   BANK5   BANK6   BANK7   BANK8   BANK9  BANK10  BANK1
      +1  BANK12  BANK13  BANK14
  1103 ;;      Params:         2       0       0       0       0       0       0       0       0       0       0       0       
      +0       0       0       0
  1104 ;;      Locals:         0       0       0       0       0       0       0       0       0       0       0       0       
      +0       0       0       0
  1105 ;;      Temps:          0       0       0       0       0       0       0       0       0       0       0       0       
      +0       0       0       0
  1106 ;;      Totals:         2       0       0       0       0       0       0       0       0       0       0       0       
      +0       0       0       0
  1107 ;;Total ram usage:        2 bytes
  1108 ;; Hardware stack levels used:    1
  1109 ;; This function calls:
  1110 ;;		Nothing
  1111 ;; This function is called by:
  1112 ;;		_EUSART1_Initialize
  1113 ;; This function uses a non-reentrant model
  1114 ;;
  1115                           
  1116                           	psect	text10
  1117  0011C8                     __ptext10:
  1118                           	opt stack 0
  1119  0011C8                     _EUSART1_SetErrorHandler:
  1120                           	opt stack 28
  1121                           
  1122                           ;eusart1.c: 178: EUSART1_ErrorHandler = interruptHandler;
  1123                           
  1124                           ;incstack = 0
  1125  0011C8  C016  F00F         	movff	EUSART1_SetErrorHandler@interruptHandler,_EUSART1_ErrorHandler
  1126  0011CC  C017  F010         	movff	EUSART1_SetErrorHandler@interruptHandler+1,_EUSART1_ErrorHandler+1
  1127  0011D0  0012               	return		;funcret
  1128  0011D2                     __end_of_EUSART1_SetErrorHandler:
  1129                           	opt stack 0
  1130                           tblptru	equ	0xFF8
  1131                           intcon	equ	0xFF2
  1132                           intcon2	equ	0xFF1
  1133                           postinc0	equ	0xFEE
  1134                           wreg	equ	0xFE8
  1135                           postdec1	equ	0xFE5
  1136                           fsr1h	equ	0xFE2
  1137                           fsr1l	equ	0xFE1
  1138                           
  1139 ;; *************** function _EEPROM_25LC512_loop *****************
  1140 ;; Defined at:
  1141 ;;		line 89 in file "_25LC512_EEPROM.c"
  1142 ;; Parameters:    Size  Location     Type
  1143 ;;		None
  1144 ;; Auto vars:     Size  Location     Type
  1145 ;;  d_Zise          2    6[COMRAM] int 
  1146 ;;  d_Zise          2    4[COMRAM] int 
  1147 ;; Return value:  Size  Location     Type
  1148 ;;                  1    wreg      void 
  1149 ;; Registers used:
  1150 ;;		wreg, status,2, status,0, cstack
  1151 ;; Tracked objects:
  1152 ;;		On entry : 0/0
  1153 ;;		On exit  : 0/0
  1154 ;;		Unchanged: 0/0
  1155 ;; Data sizes:     COMRAM   BANK0   BANK1   BANK2   BANK3   BANK4   BANK5   BANK6   BANK7   BANK8   BANK9  BANK10  BANK1
      +1  BANK12  BANK13  BANK14
  1156 ;;      Params:         0       0       0       0       0       0       0       0       0       0       0       0       
      +0       0       0       0
  1157 ;;      Locals:         4       0       0       0       0       0       0       0       0       0       0       0       
      +0       0       0       0
  1158 ;;      Temps:          0       0       0       0       0       0       0       0       0       0       0       0       
      +0       0       0       0
  1159 ;;      Totals:         4       0       0       0       0       0       0       0       0       0       0       0       
      +0       0       0       0
  1160 ;;Total ram usage:        4 bytes
  1161 ;; Hardware stack levels used:    1
  1162 ;; Hardware stack levels required when called:    2
  1163 ;; This function calls:
  1164 ;;		_EEPROM_25LC512_Read
  1165 ;;		_EEPROM_25LC512_Write
  1166 ;;		_SPI1_Exchange8bit
  1167 ;; This function is called by:
  1168 ;;		_main
  1169 ;; This function uses a non-reentrant model
  1170 ;;
  1171                           
  1172                           	psect	text11
  1173  000F3C                     __ptext11:
  1174                           	opt stack 0
  1175  000F3C                     _EEPROM_25LC512_loop:
  1176                           	opt stack 28
  1177                           
  1178                           ;_25LC512_EEPROM.c: 90: if (PORTBbits.RB7) {
  1179                           
  1180                           ;incstack = 0
  1181  000F3C  AE81               	btfss	3969,7,c	;volatile
  1182  000F3E  D01C               	goto	u570
  1183                           
  1184                           ;_25LC512_EEPROM.c: 91: if (PORTBbits.RB7) {
  1185  000F40  AE81               	btfss	3969,7,c	;volatile
  1186  000F42  D018               	goto	l338
  1187                           
  1188                           ;_25LC512_EEPROM.c: 92: EEPROM_25LC512_Write(0x12, (0x00));
  1189  000F44  0E00               	movlw	0
  1190  000F46  6E17               	movwf	EEPROM_25LC512_Write@data,c
  1191  000F48  0E12               	movlw	18
  1192  000F4A  ECDA  F007         	call	_EEPROM_25LC512_Write
  1193                           
  1194                           ;_25LC512_EEPROM.c: 93: for (int d_Zise = 0; d_Zise < 128; d_Zise++) {
  1195  000F4E  0E00               	movlw	0
  1196  000F50  6E1B               	movwf	EEPROM_25LC512_loop@d_Zise+1,c
  1197  000F52  0E00               	movlw	0
  1198  000F54  6E1A               	movwf	EEPROM_25LC512_loop@d_Zise,c
  1199  000F56                     l1638:
  1200  000F56  BE1B               	btfsc	EEPROM_25LC512_loop@d_Zise+1,7,c
  1201  000F58  D006               	goto	l335
  1202  000F5A  501B               	movf	EEPROM_25LC512_loop@d_Zise+1,w,c
  1203  000F5C  E10A               	bnz	l337
  1204  000F5E  0E80               	movlw	128
  1205  000F60  5C1A               	subwf	EEPROM_25LC512_loop@d_Zise,w,c
  1206  000F62  B0D8               	btfsc	status,0,c
  1207  000F64  D006               	goto	u560
  1208  000F66                     l335:
  1209                           
  1210                           ;_25LC512_EEPROM.c: 94: SPI1_Exchange8bit(0x00 + d_Zise);
  1211  000F66  501A               	movf	EEPROM_25LC512_loop@d_Zise,w,c
  1212  000F68  ECC6  F008         	call	_SPI1_Exchange8bit
  1213  000F6C  4A1A               	infsnz	EEPROM_25LC512_loop@d_Zise,f,c
  1214  000F6E  2A1B               	incf	EEPROM_25LC512_loop@d_Zise+1,f,c
  1215  000F70  D7F2               	goto	l1638
  1216  000F72                     u560:
  1217  000F72                     l337:
  1218  000F72  808B               	bsf	3979,0,c	;volatile
  1219  000F74                     l338:
  1220                           
  1221                           ;_25LC512_EEPROM.c: 97: }
  1222                           ;_25LC512_EEPROM.c: 98: while (PORTBbits.RB7);
  1223  000F74  BE81               	btfsc	3969,7,c	;volatile
  1224  000F76  D7FE               	goto	l338
  1225  000F78                     u570:
  1226                           
  1227                           ;_25LC512_EEPROM.c: 99: }
  1228                           ;_25LC512_EEPROM.c: 100: if (PORTBbits.RB0) {
  1229  000F78  A081               	btfss	3969,0,c	;volatile
  1230  000F7A  0012               	return	
  1231                           
  1232                           ;_25LC512_EEPROM.c: 101: if (PORTBbits.RB0) {
  1233  000F7C  A081               	btfss	3969,0,c	;volatile
  1234  000F7E  D017               	goto	l347
  1235                           
  1236                           ;_25LC512_EEPROM.c: 102: EEPROM_25LC512_Read(0x12);
  1237  000F80  0E12               	movlw	18
  1238  000F82  EC3F  F008         	call	_EEPROM_25LC512_Read
  1239                           
  1240                           ;_25LC512_EEPROM.c: 103: for (int d_Zise = 0; d_Zise < 128; d_Zise++) {
  1241  000F86  0E00               	movlw	0
  1242  000F88  6E1D               	movwf	EEPROM_25LC512_loop@d_Zise_1013+1,c
  1243  000F8A  0E00               	movlw	0
  1244  000F8C  6E1C               	movwf	EEPROM_25LC512_loop@d_Zise_1013,c
  1245  000F8E                     l1654:
  1246  000F8E  BE1D               	btfsc	EEPROM_25LC512_loop@d_Zise_1013+1,7,c
  1247  000F90  D006               	goto	l344
  1248  000F92  501D               	movf	EEPROM_25LC512_loop@d_Zise_1013+1,w,c
  1249  000F94  E10B               	bnz	l346
  1250  000F96  0E80               	movlw	128
  1251  000F98  5C1C               	subwf	EEPROM_25LC512_loop@d_Zise_1013,w,c
  1252  000F9A  B0D8               	btfsc	status,0,c
  1253  000F9C  D007               	goto	u610
  1254  000F9E                     l344:
  1255                           
  1256                           ;_25LC512_EEPROM.c: 104: SPI1_Exchange8bit(0x12 + d_Zise);
  1257  000F9E  501C               	movf	EEPROM_25LC512_loop@d_Zise_1013,w,c
  1258  000FA0  0F12               	addlw	18
  1259  000FA2  ECC6  F008         	call	_SPI1_Exchange8bit
  1260  000FA6  4A1C               	infsnz	EEPROM_25LC512_loop@d_Zise_1013,f,c
  1261  000FA8  2A1D               	incf	EEPROM_25LC512_loop@d_Zise_1013+1,f,c
  1262  000FAA  D7F1               	goto	l1654
  1263  000FAC                     u610:
  1264  000FAC                     l346:
  1265  000FAC  808B               	bsf	3979,0,c	;volatile
  1266  000FAE                     l347:
  1267                           
  1268                           ;_25LC512_EEPROM.c: 107: }
  1269                           ;_25LC512_EEPROM.c: 108: while (PORTBbits.RB0);
  1270  000FAE  A081               	btfss	3969,0,c	;volatile
  1271  000FB0  0012               	return	
  1272  000FB2  D7FD               	goto	l347
  1273  000FB4                     __end_of_EEPROM_25LC512_loop:
  1274                           	opt stack 0
  1275                           tblptru	equ	0xFF8
  1276                           intcon	equ	0xFF2
  1277                           intcon2	equ	0xFF1
  1278                           postinc0	equ	0xFEE
  1279                           wreg	equ	0xFE8
  1280                           postdec1	equ	0xFE5
  1281                           fsr1h	equ	0xFE2
  1282                           fsr1l	equ	0xFE1
  1283                           status	equ	0xFD8
  1284                           
  1285 ;; *************** function _EEPROM_25LC512_Write *****************
  1286 ;; Defined at:
  1287 ;;		line 32 in file "_25LC512_EEPROM.c"
  1288 ;; Parameters:    Size  Location     Type
  1289 ;;  address         1    wreg     unsigned char 
  1290 ;;  data            1    1[COMRAM] unsigned char 
  1291 ;; Auto vars:     Size  Location     Type
  1292 ;;  address         1    3[COMRAM] unsigned char 
  1293 ;; Return value:  Size  Location     Type
  1294 ;;                  1    wreg      void 
  1295 ;; Registers used:
  1296 ;;		wreg, status,2, cstack
  1297 ;; Tracked objects:
  1298 ;;		On entry : 0/0
  1299 ;;		On exit  : 0/0
  1300 ;;		Unchanged: 0/0
  1301 ;; Data sizes:     COMRAM   BANK0   BANK1   BANK2   BANK3   BANK4   BANK5   BANK6   BANK7   BANK8   BANK9  BANK10  BANK1
      +1  BANK12  BANK13  BANK14
  1302 ;;      Params:         1       0       0       0       0       0       0       0       0       0       0       0       
      +0       0       0       0
  1303 ;;      Locals:         1       0       0       0       0       0       0       0       0       0       0       0       
      +0       0       0       0
  1304 ;;      Temps:          1       0       0       0       0       0       0       0       0       0       0       0       
      +0       0       0       0
  1305 ;;      Totals:         3       0       0       0       0       0       0       0       0       0       0       0       
      +0       0       0       0
  1306 ;;Total ram usage:        3 bytes
  1307 ;; Hardware stack levels used:    1
  1308 ;; Hardware stack levels required when called:    1
  1309 ;; This function calls:
  1310 ;;		_SPI1_Exchange8bit
  1311 ;; This function is called by:
  1312 ;;		_main
  1313 ;;		_EEPROM_25LC512_loop
  1314 ;; This function uses a non-reentrant model
  1315 ;;
  1316                           
  1317                           	psect	text12
  1318  000FB4                     __ptext12:
  1319                           	opt stack 0
  1320  000FB4                     _EEPROM_25LC512_Write:
  1321                           	opt stack 28
  1322                           
  1323                           ;incstack = 0
  1324                           ;EEPROM_25LC512_Write@address stored from wreg
  1325  000FB4  6E19               	movwf	EEPROM_25LC512_Write@address,c
  1326                           
  1327                           ;_25LC512_EEPROM.c: 33: do { LATCbits.LATC0 = 0; } while(0);
  1328  000FB6  908B               	bcf	3979,0,c	;volatile
  1329                           
  1330                           ;_25LC512_EEPROM.c: 34: SPI1_Exchange8bit(0x06);
  1331  000FB8  0E06               	movlw	6
  1332  000FBA  ECC6  F008         	call	_SPI1_Exchange8bit
  1333                           
  1334                           ;_25LC512_EEPROM.c: 35: do { LATCbits.LATC0 = 1; } while(0);
  1335  000FBE  808B               	bsf	3979,0,c	;volatile
  1336                           
  1337                           ;_25LC512_EEPROM.c: 37: do { LATCbits.LATC0 = 0; } while(0);
  1338  000FC0  908B               	bcf	3979,0,c	;volatile
  1339                           
  1340                           ;_25LC512_EEPROM.c: 38: _delay((unsigned long)((2)*(16000000/4000.0)));
  1341  000FC2  0E0B               	movlw	11
  1342  000FC4  6E18               	movwf	??_EEPROM_25LC512_Write& (0+255),c
  1343  000FC6  0E62               	movlw	98
  1344  000FC8                     u677:
  1345  000FC8  2EE8               	decfsz	wreg,f,c
  1346  000FCA  D7FE               	bra	u677
  1347  000FCC  2E18               	decfsz	??_EEPROM_25LC512_Write& (0+255),f,c
  1348  000FCE  D7FC               	bra	u677
  1349  000FD0  D000               	nop2	
  1350                           
  1351                           ;_25LC512_EEPROM.c: 39: SPI1_Exchange8bit(0x02);
  1352  000FD2  0E02               	movlw	2
  1353  000FD4  ECC6  F008         	call	_SPI1_Exchange8bit
  1354                           
  1355                           ;_25LC512_EEPROM.c: 40: SPI1_Exchange8bit(address >> 8);
  1356  000FD8  0E00               	movlw	0
  1357  000FDA  ECC6  F008         	call	_SPI1_Exchange8bit
  1358                           
  1359                           ;_25LC512_EEPROM.c: 41: SPI1_Exchange8bit(address);
  1360  000FDE  5019               	movf	EEPROM_25LC512_Write@address,w,c
  1361  000FE0  ECC6  F008         	call	_SPI1_Exchange8bit
  1362                           
  1363                           ;_25LC512_EEPROM.c: 42: SPI1_Exchange8bit(data);
  1364  000FE4  5017               	movf	EEPROM_25LC512_Write@data,w,c
  1365  000FE6  ECC6  F008         	call	_SPI1_Exchange8bit
  1366                           
  1367                           ;_25LC512_EEPROM.c: 43: _delay((unsigned long)((2)*(16000000/4000.0)));
  1368  000FEA  0E0B               	movlw	11
  1369  000FEC  6E18               	movwf	??_EEPROM_25LC512_Write& (0+255),c
  1370  000FEE  0E62               	movlw	98
  1371  000FF0                     u687:
  1372  000FF0  2EE8               	decfsz	wreg,f,c
  1373  000FF2  D7FE               	bra	u687
  1374  000FF4  2E18               	decfsz	??_EEPROM_25LC512_Write& (0+255),f,c
  1375  000FF6  D7FC               	bra	u687
  1376  000FF8  D000               	nop2	
  1377  000FFA  0012               	return		;funcret
  1378  000FFC                     __end_of_EEPROM_25LC512_Write:
  1379                           	opt stack 0
  1380                           tblptru	equ	0xFF8
  1381                           intcon	equ	0xFF2
  1382                           intcon2	equ	0xFF1
  1383                           postinc0	equ	0xFEE
  1384                           wreg	equ	0xFE8
  1385                           postdec1	equ	0xFE5
  1386                           fsr1h	equ	0xFE2
  1387                           fsr1l	equ	0xFE1
  1388                           status	equ	0xFD8
  1389                           
  1390 ;; *************** function _EEPROM_25LC512_Read *****************
  1391 ;; Defined at:
  1392 ;;		line 49 in file "_25LC512_EEPROM.c"
  1393 ;; Parameters:    Size  Location     Type
  1394 ;;  address         1    wreg     unsigned char 
  1395 ;; Auto vars:     Size  Location     Type
  1396 ;;  address         1    2[COMRAM] unsigned char 
  1397 ;; Return value:  Size  Location     Type
  1398 ;;                  1    wreg      unsigned char 
  1399 ;; Registers used:
  1400 ;;		wreg, status,2, cstack
  1401 ;; Tracked objects:
  1402 ;;		On entry : 0/0
  1403 ;;		On exit  : 0/0
  1404 ;;		Unchanged: 0/0
  1405 ;; Data sizes:     COMRAM   BANK0   BANK1   BANK2   BANK3   BANK4   BANK5   BANK6   BANK7   BANK8   BANK9  BANK10  BANK1
      +1  BANK12  BANK13  BANK14
  1406 ;;      Params:         0       0       0       0       0       0       0       0       0       0       0       0       
      +0       0       0       0
  1407 ;;      Locals:         1       0       0       0       0       0       0       0       0       0       0       0       
      +0       0       0       0
  1408 ;;      Temps:          1       0       0       0       0       0       0       0       0       0       0       0       
      +0       0       0       0
  1409 ;;      Totals:         2       0       0       0       0       0       0       0       0       0       0       0       
      +0       0       0       0
  1410 ;;Total ram usage:        2 bytes
  1411 ;; Hardware stack levels used:    1
  1412 ;; Hardware stack levels required when called:    1
  1413 ;; This function calls:
  1414 ;;		_SPI1_Exchange8bit
  1415 ;; This function is called by:
  1416 ;;		_EEPROM_25LC512_loop
  1417 ;; This function uses a non-reentrant model
  1418 ;;
  1419                           
  1420                           	psect	text13
  1421  00107E                     __ptext13:
  1422                           	opt stack 0
  1423  00107E                     _EEPROM_25LC512_Read:
  1424                           	opt stack 28
  1425                           
  1426                           ;incstack = 0
  1427                           ;EEPROM_25LC512_Read@address stored from wreg
  1428  00107E  6E18               	movwf	EEPROM_25LC512_Read@address,c
  1429                           
  1430                           ;_25LC512_EEPROM.c: 50: do { LATCbits.LATC0 = 0; } while(0);
  1431  001080  908B               	bcf	3979,0,c	;volatile
  1432                           
  1433                           ;_25LC512_EEPROM.c: 51: _delay((unsigned long)((2)*(16000000/4000.0)));
  1434  001082  0E0B               	movlw	11
  1435  001084  6E17               	movwf	??_EEPROM_25LC512_Read& (0+255),c
  1436  001086  0E62               	movlw	98
  1437  001088                     u697:
  1438  001088  2EE8               	decfsz	wreg,f,c
  1439  00108A  D7FE               	bra	u697
  1440  00108C  2E17               	decfsz	??_EEPROM_25LC512_Read& (0+255),f,c
  1441  00108E  D7FC               	bra	u697
  1442  001090  D000               	nop2	
  1443                           
  1444                           ;_25LC512_EEPROM.c: 52: SPI1_Exchange8bit(0x03);
  1445  001092  0E03               	movlw	3
  1446  001094  ECC6  F008         	call	_SPI1_Exchange8bit
  1447                           
  1448                           ;_25LC512_EEPROM.c: 53: SPI1_Exchange8bit(address >> 8);
  1449  001098  0E00               	movlw	0
  1450  00109A  ECC6  F008         	call	_SPI1_Exchange8bit
  1451                           
  1452                           ;_25LC512_EEPROM.c: 54: SPI1_Exchange8bit(address);
  1453  00109E  5018               	movf	EEPROM_25LC512_Read@address,w,c
  1454  0010A0  ECC6  F008         	call	_SPI1_Exchange8bit
  1455                           
  1456                           ;_25LC512_EEPROM.c: 55: SPI1_Exchange8bit(0xff);
  1457  0010A4  0EFF               	movlw	255
  1458  0010A6  ECC6  F008         	call	_SPI1_Exchange8bit
  1459                           
  1460                           ;_25LC512_EEPROM.c: 56: _delay((unsigned long)((2)*(16000000/4000.0)));
  1461  0010AA  0E0B               	movlw	11
  1462  0010AC  6E17               	movwf	??_EEPROM_25LC512_Read& (0+255),c
  1463  0010AE  0E62               	movlw	98
  1464  0010B0                     u707:
  1465  0010B0  2EE8               	decfsz	wreg,f,c
  1466  0010B2  D7FE               	bra	u707
  1467  0010B4  2E17               	decfsz	??_EEPROM_25LC512_Read& (0+255),f,c
  1468  0010B6  D7FC               	bra	u707
  1469  0010B8  D000               	nop2	
  1470  0010BA  0012               	return		;funcret
  1471  0010BC                     __end_of_EEPROM_25LC512_Read:
  1472                           	opt stack 0
  1473                           tblptru	equ	0xFF8
  1474                           intcon	equ	0xFF2
  1475                           intcon2	equ	0xFF1
  1476                           postinc0	equ	0xFEE
  1477                           wreg	equ	0xFE8
  1478                           postdec1	equ	0xFE5
  1479                           fsr1h	equ	0xFE2
  1480                           fsr1l	equ	0xFE1
  1481                           status	equ	0xFD8
  1482                           
  1483 ;; *************** function _SPI1_Exchange8bit *****************
  1484 ;; Defined at:
  1485 ;;		line 79 in file "mcc_generated_files/spi1.c"
  1486 ;; Parameters:    Size  Location     Type
  1487 ;;  data            1    wreg     unsigned char 
  1488 ;; Auto vars:     Size  Location     Type
  1489 ;;  data            1    0[COMRAM] unsigned char 
  1490 ;; Return value:  Size  Location     Type
  1491 ;;                  1    wreg      unsigned char 
  1492 ;; Registers used:
  1493 ;;		wreg, status,2
  1494 ;; Tracked objects:
  1495 ;;		On entry : 0/0
  1496 ;;		On exit  : 0/0
  1497 ;;		Unchanged: 0/0
  1498 ;; Data sizes:     COMRAM   BANK0   BANK1   BANK2   BANK3   BANK4   BANK5   BANK6   BANK7   BANK8   BANK9  BANK10  BANK1
      +1  BANK12  BANK13  BANK14
  1499 ;;      Params:         0       0       0       0       0       0       0       0       0       0       0       0       
      +0       0       0       0
  1500 ;;      Locals:         1       0       0       0       0       0       0       0       0       0       0       0       
      +0       0       0       0
  1501 ;;      Temps:          0       0       0       0       0       0       0       0       0       0       0       0       
      +0       0       0       0
  1502 ;;      Totals:         1       0       0       0       0       0       0       0       0       0       0       0       
      +0       0       0       0
  1503 ;;Total ram usage:        1 bytes
  1504 ;; Hardware stack levels used:    1
  1505 ;; This function calls:
  1506 ;;		Nothing
  1507 ;; This function is called by:
  1508 ;;		_EEPROM_25LC512_Write
  1509 ;;		_EEPROM_25LC512_Read
  1510 ;;		_chipErase
  1511 ;;		_EEPROM_25LC512_loop
  1512 ;;		_SPI1_Exchange8bitBuffer
  1513 ;;		_MCP4131Write
  1514 ;;		_MCP23S08_Init
  1515 ;;		_MCP23S08Write
  1516 ;;		_rStatus_Reg
  1517 ;;		_wStatus_Reg
  1518 ;; This function uses a non-reentrant model
  1519 ;;
  1520                           
  1521                           	psect	text14
  1522  00118C                     __ptext14:
  1523                           	opt stack 0
  1524  00118C                     _SPI1_Exchange8bit:
  1525                           	opt stack 29
  1526                           
  1527                           ;incstack = 0
  1528                           ;SPI1_Exchange8bit@data stored from wreg
  1529  00118C  6E16               	movwf	SPI1_Exchange8bit@data,c
  1530                           
  1531                           ;spi1.c: 82: SSP1CON1bits.WCOL = 0;
  1532  00118E  9EC6               	bcf	4038,7,c	;volatile
  1533                           
  1534                           ;spi1.c: 84: SSP1BUF = data;
  1535  001190  C016  FFC9         	movff	SPI1_Exchange8bit@data,4041	;volatile
  1536  001194                     
  1537                           ;spi1.c: 87: {
  1538  001194  A0C7               	btfss	4039,0,c	;volatile
  1539  001196  D7FE               	goto	l19
  1540                           
  1541                           ;spi1.c: 88: }
  1542                           ;spi1.c: 90: return (SSP1BUF);
  1543  001198  50C9               	movf	4041,w,c	;volatile
  1544  00119A  0012               	return		;funcret
  1545  00119C                     __end_of_SPI1_Exchange8bit:
  1546                           	opt stack 0
  1547                           tblptru	equ	0xFF8
  1548                           intcon	equ	0xFF2
  1549                           intcon2	equ	0xFF1
  1550                           postinc0	equ	0xFEE
  1551                           wreg	equ	0xFE8
  1552                           postdec1	equ	0xFE5
  1553                           fsr1h	equ	0xFE2
  1554                           fsr1l	equ	0xFE1
  1555                           status	equ	0xFD8
  1556                           tblptru	equ	0xFF8
  1557                           intcon	equ	0xFF2
  1558                           intcon2	equ	0xFF1
  1559                           postinc0	equ	0xFEE
  1560                           wreg	equ	0xFE8
  1561                           postdec1	equ	0xFE5
  1562                           fsr1h	equ	0xFE2
  1563                           fsr1l	equ	0xFE1
  1564                           status	equ	0xFD8
  1565                           
  1566                           	psect	rparam
  1567  0000                     tblptru	equ	0xFF8
  1568                           intcon	equ	0xFF2
  1569                           intcon2	equ	0xFF1
  1570                           postinc0	equ	0xFEE
  1571                           wreg	equ	0xFE8
  1572                           postdec1	equ	0xFE5
  1573                           fsr1h	equ	0xFE2
  1574                           fsr1l	equ	0xFE1
  1575                           status	equ	0xFD8


Data Sizes:
    Strings     0
    Constant    57
    Data        0
    BSS         277
    Persistent  0
    Stack       0

Auto Spaces:
    Space          Size  Autos    Used
    COMRAM           95     10      31
    BANK0           160      0       0
    BANK1           256      0     256
    BANK2           256      0       0
    BANK3           256      0       0
    BANK4           256      0       0
    BANK5           256      0       0
    BANK6           256      0       0
    BANK7           256      0       0
    BANK8           256      0       0
    BANK9           256      0       0
    BANK10          256      0       0
    BANK11          256      0       0
    BANK12          256      0       0
    BANK13          256      0       0
    BANK14          176      0       0

Pointer List with Targets:

    EUSART1_SetErrorHandler@interruptHandler	PTR FTN()void  size(2) Largest target is 1
		 -> EUSART1_DefaultErrorHandler(), 

    EUSART1_ErrorHandler	PTR FTN()void  size(2) Largest target is 1
		 -> Absolute function(), EUSART1_DefaultErrorHandler(), 

    EUSART1_SetOverrunErrorHandler@interruptHandler	PTR FTN()void  size(2) Largest target is 1
		 -> EUSART1_DefaultOverrunErrorHandler(), 

    EUSART1_OverrunErrorHandler	PTR FTN()void  size(2) Largest target is 1
		 -> Absolute function(), EUSART1_DefaultOverrunErrorHandler(), 

    EUSART1_SetFramingErrorHandler@interruptHandler	PTR FTN()void  size(2) Largest target is 1
		 -> EUSART1_DefaultFramingErrorHandler(), 

    EUSART1_FramingErrorHandler	PTR FTN()void  size(2) Largest target is 1
		 -> Absolute function(), EUSART1_DefaultFramingErrorHandler(), 


Critical Paths under _main in COMRAM

    _main->_EEPROM_25LC512_loop
    _chipErase->_SPI1_Exchange8bit
    _SYSTEM_Initialize->_OSCILLATOR_Initialize
    _EUSART1_Initialize->_EUSART1_SetErrorHandler
    _EUSART1_Initialize->_EUSART1_SetFramingErrorHandler
    _EUSART1_Initialize->_EUSART1_SetOverrunErrorHandler
    _EEPROM_25LC512_loop->_EEPROM_25LC512_Write
    _EEPROM_25LC512_Write->_SPI1_Exchange8bit
    _EEPROM_25LC512_Read->_SPI1_Exchange8bit

Critical Paths under _main in BANK0

    None.

Critical Paths under _main in BANK1

    None.

Critical Paths under _main in BANK2

    None.

Critical Paths under _main in BANK3

    None.

Critical Paths under _main in BANK4

    None.

Critical Paths under _main in BANK5

    None.

Critical Paths under _main in BANK6

    None.

Critical Paths under _main in BANK7

    None.

Critical Paths under _main in BANK8

    None.

Critical Paths under _main in BANK9

    None.

Critical Paths under _main in BANK10

    None.

Critical Paths under _main in BANK11

    None.

Critical Paths under _main in BANK12

    None.

Critical Paths under _main in BANK13

    None.

Critical Paths under _main in BANK14

    None.

Call Graph Tables:

 ---------------------------------------------------------------------------------
 (Depth) Function   	        Calls       Base Space   Used Autos Params    Refs
 ---------------------------------------------------------------------------------
 (0) _main                                                 2     2      0     912
                                              8 COMRAM     2     2      0
               _EEPROM_25LC512_Write
                _EEPROM_25LC512_loop
                  _SYSTEM_Initialize
                          _chipErase
                     _interrupt_Init
 ---------------------------------------------------------------------------------
 (1) _interrupt_Init                                       0     0      0       0
 ---------------------------------------------------------------------------------
 (1) _chipErase                                            1     1      0      15
                                              1 COMRAM     1     1      0
                  _SPI1_Exchange8bit
 ---------------------------------------------------------------------------------
 (1) _SYSTEM_Initialize                                    0     0      0     294
                 _EUSART1_Initialize
              _OSCILLATOR_Initialize
             _PIN_MANAGER_Initialize
                    _SPI1_Initialize
 ---------------------------------------------------------------------------------
 (2) _SPI1_Initialize                                      0     0      0       0
 ---------------------------------------------------------------------------------
 (2) _PIN_MANAGER_Initialize                               0     0      0       0
 ---------------------------------------------------------------------------------
 (2) _OSCILLATOR_Initialize                                2     2      0       0
                                              0 COMRAM     2     2      0
 ---------------------------------------------------------------------------------
 (2) _EUSART1_Initialize                                   0     0      0     294
            _EUSART1_SetErrorHandler
     _EUSART1_SetFramingErrorHandler
     _EUSART1_SetOverrunErrorHandler
 ---------------------------------------------------------------------------------
 (3) _EUSART1_SetOverrunErrorHandler                       2     0      2      98
                                              0 COMRAM     2     0      2
 ---------------------------------------------------------------------------------
 (3) _EUSART1_SetFramingErrorHandler                       2     0      2      98
                                              0 COMRAM     2     0      2
 ---------------------------------------------------------------------------------
 (3) _EUSART1_SetErrorHandler                              2     0      2      98
                                              0 COMRAM     2     0      2
 ---------------------------------------------------------------------------------
 (1) _EEPROM_25LC512_loop                                  4     4      0     392
                                              4 COMRAM     4     4      0
                _EEPROM_25LC512_Read
               _EEPROM_25LC512_Write
                  _SPI1_Exchange8bit
 ---------------------------------------------------------------------------------
 (2) _EEPROM_25LC512_Write                                 3     2      1     211
                                              1 COMRAM     3     2      1
                  _SPI1_Exchange8bit
 ---------------------------------------------------------------------------------
 (2) _EEPROM_25LC512_Read                                  2     2      0      30
                                              1 COMRAM     2     2      0
                  _SPI1_Exchange8bit
 ---------------------------------------------------------------------------------
 (2) _SPI1_Exchange8bit                                    1     1      0      15
                                              0 COMRAM     1     1      0
 ---------------------------------------------------------------------------------
 Estimated maximum stack depth 3
 ---------------------------------------------------------------------------------

 Call Graph Graphs:

 _main (ROOT)
   _EEPROM_25LC512_Write
     _SPI1_Exchange8bit
   _EEPROM_25LC512_loop
     _EEPROM_25LC512_Read
       _SPI1_Exchange8bit
     _EEPROM_25LC512_Write
       _SPI1_Exchange8bit
     _SPI1_Exchange8bit
   _SYSTEM_Initialize
     _EUSART1_Initialize
       _EUSART1_SetErrorHandler
       _EUSART1_SetFramingErrorHandler
       _EUSART1_SetOverrunErrorHandler
     _OSCILLATOR_Initialize
     _PIN_MANAGER_Initialize
     _SPI1_Initialize
   _chipErase
     _SPI1_Exchange8bit
   _interrupt_Init

 Address spaces:
Name               Size   Autos  Total    Cost      Usage
BIGRAM             EAF      0       0      35        0.0%
BITBANK13          100      0       0      31        0.0%
BANK13             100      0       0      32        0.0%
BITBANK12          100      0       0      29        0.0%
BANK12             100      0       0      30        0.0%
BITBANK11          100      0       0      27        0.0%
BANK11             100      0       0      28        0.0%
BITBANK10          100      0       0      25        0.0%
BANK10             100      0       0      26        0.0%
BITBANK9           100      0       0      23        0.0%
BANK9              100      0       0      24        0.0%
BITBANK8           100      0       0      21        0.0%
BANK8              100      0       0      22        0.0%
BITBANK7           100      0       0      19        0.0%
BANK7              100      0       0      20        0.0%
BITBANK6           100      0       0      17        0.0%
BANK6              100      0       0      18        0.0%
BITBANK5           100      0       0      15        0.0%
BANK5              100      0       0      16        0.0%
BITBANK4           100      0       0      13        0.0%
BANK4              100      0       0      14        0.0%
BITBANK3           100      0       0      11        0.0%
BANK3              100      0       0      12        0.0%
BITBANK2           100      0       0       9        0.0%
BANK2              100      0       0      10        0.0%
BITBANK1           100      0       0       7        0.0%
BANK1              100      0     100       8      100.0%
BITBANK14           B0      0       0      33        0.0%
BANK14              B0      0       0      34        0.0%
BITBANK0            A0      0       0       4        0.0%
BANK0               A0      0       0       5        0.0%
BITCOMRAM           5F      0       0       0        0.0%
COMRAM              5F      A      1F       1       32.6%
BITSFR_2             0      0       0     200        0.0%
SFR_2                0      0       0     200        0.0%
BITSFR_1             0      0       0     200        0.0%
SFR_1                0      0       0     200        0.0%
BITSFR               0      0       0     200        0.0%
SFR                  0      0       0     200        0.0%
STACK                0      0       0       2        0.0%
NULL                 0      0       0       0        0.0%
ABS                  0      0     11F       6        0.0%
DATA                 0      0     11F       3        0.0%
CODE                 0      0       0       0        0.0%


Microchip Technology PIC18 Macro Assembler V1.45 build -152302408 
Symbol Table                                                                                   Wed Jul 10 16:35:15 2019

                             _SPI1_Exchange8bit 118C                            ?_EEPROM_25LC512_Read 0016  
                          ?_EEPROM_25LC512_loop 0016                           ?_EEPROM_25LC512_Write 0017  
                    EEPROM_25LC512_Read@address 0018                              ?_SPI1_Exchange8bit 0016  
                                            l19 1194                          __end_of_interrupt_Init 11B4  
                                  __CFG_CP0$OFF 000000                                     __CFG_OSC$HS 000000  
                                           l231 10FE                                             l335 0F66  
                                           _ADC 000D                                             l344 0F9E  
                                           l337 0F72                                             l346 0FAC  
                                           l338 0F74                                             l347 0FAE  
                                           u610 0FAC                                             u560 0F72  
                                           u570 0F78                                             u707 10B0  
                                           u637 1116                                             u647 10CC  
                                           u657 10DE                                             u667 116C  
                                           u677 0FC8                                             u687 0FF0  
                                           u697 1088                             ??_SPI1_Exchange8bit 0016  
                                           wreg 000FE8                                      _TXSTA1bits 000FAD  
                                  __CFG_IESO$ON 000000                                            l1654 0F8E  
                                          l1638 0F56                                            _LATA 000F89  
                                          _LATB 000F8A                                            _LATC 000F8B  
                                          _LATD 000F8C                                            _LATE 000F8D  
                                 __CFG_FCMEN$ON 000000                                            _main 10F2  
                                          fsr1h 000FE2                                            fsr1l 000FE1  
                                          start 0000                       __end_of_SPI1_Exchange8bit 119C  
                         ??_EEPROM_25LC512_Read 0017                                    ___param_bank 000000  
                         ??_EEPROM_25LC512_loop 001A                                   __CFG_PLLDIV$1 000000  
                __size_of_OSCILLATOR_Initialize 002A                   __end_of_OSCILLATOR_Initialize 117A  
                               ?_interrupt_Init 0016                                           ?_main 0016  
                                         _TRISA 000F92                                           _TRISB 000F93  
                                         _TRISC 000F94                                           _TRISD 000F95  
                                         _TRISE 000F96                                           _sData 0001  
                                         _errno 000B                                  __CFG_CLKOEC$ON 000000  
                                         status 000FD8              _EUSART1_DefaultFramingErrorHandler 000000  
                      __size_of_SPI1_Initialize 000E                         __CFG_DSWDTOSC$INTOSCREF 000000  
                               __initialization 1126                          ??_EEPROM_25LC512_Write 0018  
                    __end_of_EUSART1_Initialize 107E                                    __end_of_main 1126  
                   EEPROM_25LC512_Write@address 0019                                          ??_main 001E  
                                 __activetblptr 000002                                          _ANCON0 000F48  
                                        _ANCON1 000F49                                          _ODCON1 000F42  
                                        _ODCON2 000F41                                          _ODCON3 000F40  
                                __CFG_WDTEN$OFF 000000                                          _RCREG1 000FAF  
                                        _RCSTA1 000FAC                                          _OSCCON 000FD3  
                                        _SPBRG1 000FB0                                  __CFG_WPCFG$OFF 000000  
                                        _TXREG1 000FAE                                          _TXSTA1 000FAD  
                         SPI1_Exchange8bit@data 0016                                  __CFG_WPDIS$OFF 000000  
                    __size_of_SPI1_Exchange8bit 0010                                  __CFG_XINST$OFF 000000  
                                        _TxData 0100                                  __CFG_STVREN$ON 000000  
                      ?_EUSART1_SetErrorHandler 0016                                          clear_0 112E  
                                        clear_1 1140                ??_EUSART1_SetOverrunErrorHandler 0018  
               ?_EUSART1_SetOverrunErrorHandler 0016                                    __mediumconst 0000  
                                        tblptru 000FF8                                 __CFG_DSBOREN$ON 000000  
                              __end_ofexp@coeff 0F1F                               _SYSTEM_Initialize 117A  
                              __end_oflog@coeff 0F3A                                      __accesstop 0060  
                       __end_of__initialization 1146                              ?_SYSTEM_Initialize 0016  
                                 ___rparam_used 000001                                 __CFG_IOL1WAY$ON 000000  
                          __CFG_WPEND$PAGE_WPFP 000000                                  __pcstackCOMRAM 0016  
                           ??_SYSTEM_Initialize 0018                               ??_SPI1_Initialize 0016  
                               __CFG_DSWDTEN$ON 000000                              __size_of_chipErase 0036  
                               __CFG_DSWDTPS$G2 000000                       __end_of_SYSTEM_Initialize 118C  
                                    __pbssBANK1 0100                 __end_of_EUSART1_SetErrorHandler 11D2  
                             __CFG_PLLSEL$PLL4X 000000                                ??_interrupt_Init 0016  
                      EEPROM_25LC512_Write@data 0017          __end_of_EUSART1_SetFramingErrorHandler 11C8  
       __size_of_EUSART1_SetFramingErrorHandler 000A                  _EUSART1_SetFramingErrorHandler 11BE  
                EEPROM_25LC512_loop@d_Zise_1013 001C                                         _REFOCON 000F3D  
                                       _OSCCON2 000F87                                         _OSCTUNE 000F9B  
                                       _SPBRGH1 000F7F                                         _SSP1ADD 000FC8  
                                       _SSP2ADD 000F74                                         _SSP1BUF 000FC9  
                                       _SSP2BUF 000F75                               __end_of_chipErase 10F2  
                   __end_of_EEPROM_25LC512_Read 10BC                     __end_of_EEPROM_25LC512_loop 0FB4  
                                       __Hparam 0000                                         __Lparam 0000  
                                  __psmallconst 0F00                                         __pcinit 1126  
                                       __ramtop 0F00                                         __ptext0 10F2  
                                       __ptext1 11AA                                         __ptext2 10BC  
                                       __ptext3 117A                                         __ptext4 119C  
                                       __ptext5 0FFC                                         __ptext6 1150  
                                       __ptext7 1040                                         __ptext8 11B4  
                                       __ptext9 11BE                           _OSCILLATOR_Initialize 1150  
                            _EUSART1_Initialize 1040                        ??_PIN_MANAGER_Initialize 0016  
                    __size_of_SYSTEM_Initialize 0012                            end_of_initialization 1146  
                           ?_EUSART1_Initialize 0016                                   __Lmediumconst 0000  
                   _EUSART1_OverrunErrorHandler 0011                                         postdec1 000FE5  
                                       postinc0 000FEE                   __size_of_EEPROM_25LC512_Write 0048  
                          ??_EUSART1_Initialize 0018                                       _PORTBbits 000F81  
                                     _TRISDbits 000F95                                       _TRISEbits 000F96  
              __size_of_EUSART1_SetErrorHandler 000A                                 _SPI1_Initialize 119C  
                             __CFG_WPFP$PAGE_63 000000                             __CFG_MSSP7B_EN$MSK7 000000  
                        ?_OSCILLATOR_Initialize 0016                             start_initialization 1126  
               __size_of_PIN_MANAGER_Initialize 0044                               __CFG_ADCSEL$BIT10 000000  
                     EEPROM_25LC512_loop@d_Zise 001A                                     __pbssCOMRAM 0001  
                       __end_of_SPI1_Initialize 11AA                ??_EUSART1_SetFramingErrorHandler 0018  
               ?_EUSART1_SetFramingErrorHandler 0016                                       _chipErase 10BC  
                        _PIN_MANAGER_Initialize 0FFC                                     __smallconst 0F00  
                                      _BAUDCON1 000F7E              _EUSART1_DefaultOverrunErrorHandler 000000  
                          _EUSART1_ErrorHandler 000F                            __CFG_RTCOSC$T1OSCREF 000000  
                       _EUSART1_SetErrorHandler 11C8         EUSART1_SetErrorHandler@interruptHandler 0016  
                                      _LATCbits 000F8B                                        _PIE3bits 000FA3  
                                    ?_chipErase 0016                                        _PIR1bits 000F9E  
                                      _PIR3bits 000FA4                    __size_of_EEPROM_25LC512_Read 003E  
                              __CFG_WDTPS$32768 000000                                        _SSP1CON1 000FC6  
                  __size_of_EEPROM_25LC512_loop 0078                                        _SSP1STAT 000FC7  
                              __CFG_SOSCSEL$DIG 000000                         __size_of_interrupt_Init 000A  
                             __CFG_CFGPLLEN$OFF 000000                                ?_SPI1_Initialize 0016  
                  __end_of_EEPROM_25LC512_Write 0FFC                                     _INTCON2bits 000FF1  
                                      __Hrparam 0000                                        __Lrparam 0000  
                       ??_OSCILLATOR_Initialize 0016                     __size_of_EUSART1_Initialize 003E  
                     ??_EUSART1_SetErrorHandler 0018                     _EUSART1_DefaultErrorHandler 000000  
                                      __ptext10 11C8                                        __ptext11 0F3C  
                                      __ptext12 0FB4                                        __ptext13 107E  
                                      __ptext14 118C                                    _SSP1CON1bits 000FC6  
                                  _SSP2CON1bits 000F72                                    _SSP2CON2bits 000F71  
                                 __size_of_main 0034                                     ??_chipErase 0017  
EUSART1_SetOverrunErrorHandler@interruptHandler 0016                                    _SSP1STATbits 000FC7  
                   _EUSART1_FramingErrorHandler 0013                                    _SSP2STATbits 000F73  
                                      exp@coeff 0F01                                        log@coeff 0F1F  
                                    _INTCONbits 000FF2                         ?_PIN_MANAGER_Initialize 0016  
        __end_of_EUSART1_SetOverrunErrorHandler 11BE         __size_of_EUSART1_SetOverrunErrorHandler 000A  
                _EUSART1_SetOverrunErrorHandler 11B4                                      _RCSTA1bits 000FAC  
EUSART1_SetFramingErrorHandler@interruptHandler 0016                            _EEPROM_25LC512_Write 0FB4  
                            _eusart1RxLastError 0015                                  _interrupt_Init 11AA  
                           _EEPROM_25LC512_Read 107E                             _EEPROM_25LC512_loop 0F3C  
                __end_of_PIN_MANAGER_Initialize 1040  
